(iHMM
HiddenMarkovModel
p0
(dp1
S'A'
p2
(lp3
(lp4
F0.022066458072578784
aF4.2618719054525966e-63
aF0.06817257006253788
aF8.549611687512959e-35
aF1.4362288807446127e-30
aF4.851938716504665e-77
aF4.083916821161732e-54
aF3.347117743829711e-57
aF3.117293667534134e-44
aF1.2019912117663522e-32
aF8.017542146971218e-105
aF3.888683967493802e-127
aF3.026908145719393e-72
aF0.9097609718648839
aF2.3274054666826002e-57
aa(lp5
F6.328498526481641e-52
aF2.6835700404287673e-41
aF2.205879718652767e-49
aF1.301954647620918e-27
aF2.226711392072613e-62
aF0.9795325170373157
aF5.373485753503715e-50
aF0.012601683423815395
aF0.007865799538868545
aF4.668087207246685e-81
aF2.121792188011798e-287
aF7.405288532407569e-93
aF1.8702433644077398e-59
aF8.476142328314602e-98
aF1.591184445253306e-42
aa(lp6
F0.11403112923243974
aF1.4066100594631662e-51
aF1.0615595396558311e-61
aF0.003405462530153085
aF8.926690596759023e-30
aF1.6897214160885215e-42
aF0.05807737320877105
aF1.9188896184105413e-60
aF0.02200604230332528
aF0.13357027296987287
aF6.051178497119295e-146
aF7.801746747769217e-68
aF0.6373906686512009
aF0.0315190511042373
aF2.932442561730522e-25
aa(lp7
F1.8748581935025752e-20
aF0.0976260701507653
aF0.7970132659398891
aF6.392419741282201e-75
aF1.5794286152649063e-63
aF1.1268910207868625e-50
aF1.3346939550556728e-164
aF6.932283174949752e-44
aF0.01544508776661792
aF4.767324646640788e-37
aF8.505816194389083e-48
aF1.3142869697923213e-74
aF0.08991557614272734
aF1.5496901545784655e-26
aF4.059810881312387e-60
aa(lp8
F0.30067714856712435
aF5.9795589466602135e-34
aF1.6426515815853942e-31
aF9.769212796090295e-43
aF1.643087362146993e-32
aF1.2590401425073744e-57
aF3.481740606160695e-45
aF0.4156169771785712
aF7.372745633005876e-33
aF1.3529833543041541e-24
aF4.3813706903544366e-207
aF6.755483145739708e-116
aF2.13399341846842e-53
aF0.02075688374582758
aF0.26294899050847653
aa(lp9
F6.704808687007133e-52
aF2.3125348882082733e-59
aF1.0393681952402066e-53
aF4.252894519551124e-85
aF7.524483902170337e-66
aF9.989576967768344e-87
aF4.046928206445015e-86
aF2.2571343996800003e-49
aF0.07284661018485153
aF1.5187747494745514e-56
aF0.0
aF9.251491282832127e-109
aF0.9271533898151488
aF1.1829081414915325e-76
aF6.513247830058874e-44
aa(lp10
F4.41818628339509e-40
aF0.5042892020747728
aF2.713547104329469e-59
aF1.4589922985202915e-23
aF5.821257279002542e-66
aF2.5782422611737106e-63
aF1.0710172089355338e-61
aF0.04488802282371067
aF0.4508227751015166
aF8.923981362634304e-78
aF2.5190079338553506e-282
aF5.161347719927036e-237
aF3.845590143633825e-43
aF1.110630848503479e-78
aF1.4282294576913203e-31
aa(lp11
F4.308767682583386e-50
aF3.4084792568646984e-62
aF1.6837018544033104e-41
aF2.3478275566148757e-16
aF4.573302887520399e-53
aF0.13148603493647834
aF0.008624079070584406
aF1.1721212285148386e-48
aF6.489787736475255e-17
aF8.40670166266451e-37
aF6.0134112927467506e-269
aF1.1506109758471837e-79
aF0.38772689066825006
aF9.665484977540482e-78
aF0.47216299532468625
aa(lp12
F0.10875097797176286
aF0.048515659615644795
aF1.6311891235990817e-52
aF0.8370288282383128
aF1.899432708875009e-39
aF3.7885605378522227e-45
aF6.39383540659781e-60
aF1.5125416638626965e-49
aF0.005704534174279217
aF6.336343585962171e-87
aF1.1692805301337844e-291
aF5.094425509649572e-201
aF1.220701538915987e-44
aF4.633481017979546e-26
aF1.8075725061574437e-57
aa(lp13
F0.3943810169510335
aF0.017850796020024172
aF1.967608340830592e-14
aF4.3272943517316825e-69
aF9.395622630871967e-30
aF4.703629452477347e-15
aF6.707845577143486e-35
aF0.17660075014100474
aF0.3688527195409523
aF8.873659306863161e-41
aF7.709963263322614e-186
aF0.007599836855512354
aF1.1573435170764683e-70
aF2.1553126197810982e-23
aF0.03471488049144945
aa(lp14
F2.624363983290264e-87
aF2.5943735373981103e-114
aF8.638414218252385e-127
aF1.1174552737702619e-142
aF7.81336369827051e-57
aF1.8248247312904142e-87
aF1.5553087625032304e-101
aF2.622520808744081e-140
aF2.974460230851379e-95
aF0.9674066137051508
aF0.0325933862948492
aF3.158787124037901e-99
aF7.494372795967406e-106
aF5.8626157408609246e-74
aF3.9797014601717055e-59
aa(lp15
F5.260619657050088e-68
aF5.313793516039422e-76
aF1.688902169878584e-90
aF5.613321096071802e-136
aF2.3547790765911603e-35
aF4.4353391548573136e-169
aF0.25802420651181673
aF0.12608744960109608
aF0.615888343887087
aF7.287026693020022e-49
aF0.0
aF3.241433565888065e-162
aF4.259344753925097e-74
aF5.022812145599065e-58
aF6.031391518777487e-44
aa(lp16
F5.485385513629407e-14
aF3.4496330867029675e-89
aF1.5003130598334596e-53
aF7.153777063242843e-10
aF0.5561691541295174
aF2.5289218706779354e-72
aF0.24404640948290363
aF0.17133717033176596
aF0.02844726534038084
aF1.4870822592479374e-37
aF1.125143920841416e-95
aF5.295220862560256e-88
aF8.167015939354373e-52
aF1.2091535025249852e-61
aF7.492461763938819e-30
aa(lp17
F0.21491580222417392
aF0.1404052788600396
aF1.840163694485051e-66
aF1.3949864896536147e-33
aF0.09195050556517545
aF2.8634028513483416e-103
aF0.00842874847727443
aF0.2598311865032291
aF0.02913047187328773
aF3.932349814853761e-16
aF7.50801594389163e-233
aF1.4285272753447055e-70
aF7.758810100335593e-57
aF2.1424661998634377e-51
aF0.25533800649681965
aa(lp18
F0.21484132029008893
aF0.06559018159442226
aF5.293110548763065e-60
aF3.369268406675436e-13
aF8.72816814085572e-52
aF1.4401966765389957e-53
aF3.303925017895432e-39
aF7.805001222749416e-24
aF0.7195684981151513
aF1.0176289487946507e-50
aF2.1862084289941163e-157
aF6.341792890322735e-197
aF1.6166431156506675e-32
aF3.951679921431513e-72
aF9.651543183501561e-45
aasS'D'
p19
I801
sS'L'
p20
I15
sS'O'
p21
(lp22
(lp23
F6.673400863266241e-91
aF5.898232409782001e-220
aF2.432716532184692e-73
aF2.1857548169728488e-77
aF1.5089893294128207e-103
aF0.0058029050862634084
aF3.6355334848939903e-78
aF7.446581282246184e-40
aF2.066425315655156e-113
aF0.1620599896618878
aF1.0968892513130925e-60
aF2.4267335775569956e-116
aF0.0
aF0.0
aF0.0
aF0.006553054383613947
aF7.66176084901206e-106
aF0.026772175997242756
aF0.05282328311501666
aF1.4094069024168256e-88
aF0.0045575076739431545
aF0.0
aF1.4304330447426094e-92
aF0.0
aF0.009154386537590537
aF3.309568157672526e-63
aF0.0045575076739431545
aF9.946557230247413e-292
aF3.779975772375991e-66
aF1.6468254536532292e-74
aF7.22154637089563e-114
aF3.8535092939950237e-308
aF0.004572732239783326
aF1.2911213824308999e-34
aF0.005663508115880476
aF4.628678415517356e-165
aF0.0
aF0.0
aF2.378651832434569e-90
aF1.1672422045728616e-148
aF1.655723537044545e-72
aF0.0
aF2.027692814103175e-140
aF1.381944249344481e-157
aF0.0
aF5.997969764985798e-164
aF0.0
aF1.9712840601581708e-10
aF0.0
aF0.009261397735799655
aF0.0
aF0.0
aF9.37168117451717e-21
aF3.185338359043643e-279
aF0.0
aF3.001103639997491e-166
aF9.418696489250499e-128
aF8.940250995111416e-287
aF0.0045575076739431545
aF0.008069412469610156
aF3.334449572822022e-138
aF7.66265655665505e-233
aF1.9586757698939222e-107
aF0.0
aF2.9116533005063013e-103
aF0.07851639996866089
aF2.76578816663613e-108
aF2.632938284496013e-178
aF0.0
aF4.58091163356073e-46
aF0.0
aF0.0
aF4.443148765685663e-180
aF0.10917084664504036
aF0.0
aF2.2298887462390808e-120
aF2.6473346469228328e-58
aF0.0
aF0.010727204041737852
aF0.0045575076739431545
aF1.8796132016301226e-54
aF0.0
aF9.315479118636045e-88
aF1.264794214518737e-80
aF2.2941920716095118e-150
aF0.0045575076739431545
aF0.0
aF8.70360144355143e-118
aF0.0
aF0.0
aF0.0
aF0.0
aF2.3911779232793147e-122
aF0.018230030695772618
aF3.987523669027161e-77
aF0.0
aF0.0
aF6.422606127772471e-31
aF6.968098546234253e-91
aF3.6345473192443935e-135
aF1.2252453361969127e-72
aF6.671127850438766e-95
aF0.0
aF0.0
aF1.5337544774420622e-86
aF2.4677007185603134e-112
aF0.0
aF1.0448638145831122e-51
aF0.035587794597304934
aF0.0
aF2.0971596493537467e-58
aF0.0
aF0.0
aF2.3079550843858268e-226
aF2.997867462427072e-22
aF3.8651582475532376e-167
aF0.019156122359061598
aF0.0
aF7.557439655539717e-35
aF2.3610575980022437e-103
aF0.0
aF0.009115015347886309
aF0.0
aF2.0469338844339646e-243
aF3.6043805783389154e-210
aF0.0
aF0.0
aF0.005000125496333963
aF1.9514391857466717e-128
aF4.068293103403436e-139
aF0.009495018485846128
aF9.119065590752238e-36
aF0.0
aF3.0473091551418818e-118
aF5.057477871982754e-68
aF1.3474831193253473e-187
aF2.5216926580992298e-51
aF9.698935714711562e-50
aF5.711867249009803e-40
aF0.0
aF1.4244594636983727e-102
aF2.5179412033625705e-31
aF3.6391703614085254e-158
aF6.952441253474776e-122
aF0.0
aF3.117325993512686e-107
aF5.43648648801e-312
aF1.2393496073570477e-91
aF1.8291108172744867e-201
aF0.0
aF5.133209894553284e-230
aF0.0
aF6.935219634349122e-70
aF1.4464752563884313e-175
aF1.1572737881351587e-132
aF0.0
aF0.034034505824460194
aF5.090489726824258e-91
aF7.49073482114785e-51
aF0.050525647867711555
aF0.0
aF0.014026275822896183
aF4.082589762203005e-28
aF6.173300631815188e-84
aF0.006750136146044845
aF0.0
aF4.581649418414318e-127
aF0.0
aF0.0
aF0.0
aF1.5570553510389281e-260
aF0.0
aF2.483475687450356e-128
aF1.09347416584e-313
aF0.0
aF5.541299157897012e-291
aF4.901686935163327e-124
aF2.0113936478820577e-148
aF1.859363079170002e-200
aF1.5815201497317377e-177
aF0.013672523021829464
aF0.0
aF2.748384207994663e-48
aF3.3567418891321105e-38
aF0.0045575076739431545
aF0.0
aF0.0
aF1.665258775035715e-51
aF0.0
aF0.0
aF1.5178103864729508e-104
aF1.938389045009026e-245
aF4.1569493815361447e-23
aF5.953975340890134e-132
aF0.0
aF1.0119358781896472e-52
aF1.0379488815096168e-105
aF1.465221002991239e-168
aF2.927209320197718e-179
aF3.0507416200166236e-249
aF0.0041687366282141345
aF0.0
aF0.0
aF4.2084248245238e-72
aF1.1937075874269168e-67
aF4.706937031632416e-156
aF1.0345866930469995e-51
aF0.0
aF2.1152728922576342e-176
aF2.4403691215971677e-104
aF0.0
aF0.0
aF1.6093794037171135e-149
aF0.0
aF1.7540424994124893e-43
aF0.0
aF3.185755493843572e-200
aF0.0
aF0.0
aF0.0
aF0.0
aF0.0
aF0.0
aF2.0659499119439434e-96
aF0.0045575076739431545
aF0.0
aF3.5353803761800813e-99
aF0.0046432167971167575
aF8.678426677135442e-37
aF0.0
aF8.650421280650977e-134
aF0.0
aF1.9060875646491912e-16
aF0.00782894241423797
aF0.0
aF2.5685473058108133e-224
aF0.022787538369715775
aF3.238487765939757e-138
aF5.795257921360576e-303
aF4.235542870428526e-60
aF1.4222906342848979e-129
aF0.0
aF2.4899795238822784e-283
aF1.5803737483206832e-44
aF6.30982165420937e-78
aF8.828028034452691e-169
aF0.0
aF0.0
aF2.7349298722784057e-166
aF3.378597088939085e-81
aF1.1709833018361032e-120
aF0.0
aF0.0045765418642953306
aF0.0
aF0.0
aF0.0
aF0.0
aF0.0
aF0.0
aF0.0
aF0.0
aF6.1061664640657705e-164
aF0.0
aF3.385071476320143e-115
aF0.0045575076739431545
aF6.451787332878417e-225
aF0.013689168425224212
aF3.0198054009606994e-215
aF0.0
aF0.0
aF0.0
aF0.004562367324628254
aF0.0
aF2.911499681714571e-101
aF0.0
aF0.0
aF4.1564990421365683e-190
aF4.7336253244942874e-88
aF6.046893297776228e-215
aF3.8573738540603975e-123
aF0.0
aF0.0
aF0.0
aF2.7112772209281895e-159
aF0.0
aF0.0
aF4.727391878319579e-78
aF0.004557507673909112
aF2.8326083850629433e-235
aF0.0
aF3.364319033218457e-305
aF4.222961944144046e-79
aF1.226537734988183e-86
aF1.7418260563603037e-157
aF1.3989927716756993e-226
aF0.0
aF0.0
aF1.1058693675696287e-169
aF0.0
aF1.6061061187180162e-164
aF0.0
aF9.65123103070068e-243
aF1.4772479001540801e-150
aF2.9505376755005306e-256
aF0.0045575076739432846
aF3.5350815532635134e-141
aF3.9384212124682006e-48
aF3.421563478522938e-25
aF1.0081597419597117e-204
aF0.0045575076739431545
aF8.236961554027194e-149
aF7.425211076521211e-121
aF0.0
aF0.0
aF0.0
aF8.963268926532675e-169
aF0.0
aF1.171416746756634e-64
aF3.3623023880877124e-13
aF7.13365202816309e-177
aF0.0
aF4.185685817632992e-46
aF0.0045575076739431545
aF6.475149320458356e-31
aF0.009951459721643022
aF0.0046028292637108345
aF1.259023419710379e-20
aF0.0
aF0.0
aF0.0
aF3.014374063575339e-187
aF6.053569096520831e-277
aF5.442595115002641e-45
aF1.0802922600752919e-93
aF0.0
aF0.0
aF4.977589038381294e-65
aF1.4930817360392759e-174
aF0.0045575076739431545
aF8.033776352323765e-163
aF0.0
aF2.569127988329877e-128
aF1.2687072079132956e-29
aF0.0
aF0.0
aF2.41164961423999e-80
aF3.9515407188206524e-153
aF0.0
aF0.0045575076739431545
aF9.689062727765018e-109
aF0.0
aF3.568746210720518e-94
aF0.0
aF6.651840524876447e-145
aF1.683831957141836e-247
aF1.2286939785915376e-176
aF0.0
aF1.2584991995852364e-137
aF0.0
aF8.92264764512135e-191
aF0.013672523021829464
aF2.0437028965669996e-261
aF4.1923465928284643e-184
aF0.0
aF6.497508210093034e-185
aF0.0
aF1.1542391062774367e-47
aF2.1818386848526116e-126
aF0.0
aF1.3617750519132433e-64
aF3.3311638104252525e-74
aF0.0
aF0.0
aF0.0
aF7.648648602106368e-108
aF1.7616588020367413e-274
aF0.0045575076739431545
aF0.0
aF1.6656528530329334e-167
aF0.0
aF9.169279247079017e-166
aF1.8709934507429626e-101
aF0.0
aF0.0
aF0.0
aF0.0
aF0.0
aF0.0
aF0.0
aF0.0
aF0.0
aF1.0480493518400809e-193
aF0.0
aF0.0
aF3.226987018964132e-44
aF0.0
aF6.745688524960673e-163
aF7.682868684880971e-13
aF6.3699086958354505e-267
aF1.0411278133129747e-152
aF0.0
aF2.1630033749348933e-283
aF2.4848608325883706e-227
aF0.0
aF0.0
aF0.0
aF0.0
aF0.0
aF0.0
aF0.0
aF2.656022964472562e-229
aF6.475497894529395e-191
aF0.0
aF0.004608099916287338
aF0.0
aF7.467275712970933e-195
aF0.0
aF0.0
aF0.0
aF0.0
aF1.3895085830980752e-194
aF2.719823328035574e-214
aF7.506553946180827e-131
aF9.275281469464796e-176
aF2.5398391706746575e-288
aF1.483768688690947e-142
aF4.199086352338338e-105
aF0.0
aF1.4677215617e-313
aF1.113413810751068e-70
aF3.041513136611554e-264
aF0.0
aF0.0
aF0.0045575076739431545
aF0.0
aF0.0
aF0.0
aF0.0
aF0.0
aF0.0
aF5.6930549973876976e-114
aF0.0
aF0.0
aF0.004087360240328843
aF0.0
aF4.178976716862914e-232
aF0.0
aF0.0
aF0.0
aF7.320547635150922e-68
aF0.0
aF2.6271153537809486e-162
aF0.0
aF0.0045575076739431545
aF9.300017516530073e-59
aF2.127180735447068e-105
aF0.0
aF0.0
aF1.606816645556698e-138
aF2.332759730361742e-44
aF0.0
aF1.681647260499817e-170
aF4.002196742433139e-166
aF5.452151050354483e-92
aF0.0
aF0.0
aF2.675696836477274e-158
aF0.0
aF0.0
aF0.0
aF9.418390770093825e-84
aF2.7643196469926173e-222
aF0.0
aF0.0
aF0.0
aF0.0
aF0.0
aF0.0
aF2.775124377359145e-133
aF0.0
aF0.0
aF9.268279127408097e-55
aF6.468895297228952e-95
aF0.0
aF0.0
aF4.101474216331118e-136
aF9.481779582886817e-285
aF0.0045575076739431545
aF0.0
aF0.0
aF0.0
aF4.169816150937919e-178
aF0.0
aF7.83908617479894e-198
aF0.0
aF0.0
aF0.0
aF1.6237367724891692e-133
aF0.0
aF0.0
aF4.031525465724998e-235
aF5.054290688640026e-91
aF1.6035620811053937e-37
aF5.289033724728139e-290
aF0.0
aF3.4488483434609985e-107
aF0.0045575076739431545
aF0.0
aF0.0
aF5.307687517377425e-165
aF0.0
aF0.0
aF1.8867448449241964e-274
aF0.0
aF0.0
aF9.730387954757197e-265
aF1.3244493289185783e-226
aF0.0
aF1.890461585944906e-167
aF0.0
aF0.0
aF0.0
aF0.0
aF4.785821146788655e-276
aF1.4683713963294535e-156
aF0.0045575076739431545
aF0.0
aF4.03774727168266e-108
aF0.0045884646525686254
aF0.0
aF1.259662937232962e-65
aF0.0
aF0.0
aF0.0
aF0.0
aF0.009115015347886309
aF1.2399384402827038e-100
aF0.0
aF0.0
aF5.3443555669748676e-164
aF0.0
aF5.717703926267011e-164
aF0.0
aF0.0
aF0.0
aF0.0
aF1.4670948011688245e-170
aF0.0
aF0.0
aF0.0
aF0.0
aF0.0
aF0.0
aF6.345296921125602e-248
aF0.0
aF1.121450053e-314
aF1.1434199498992776e-163
aF0.0
aF2.3067723352350904e-169
aF9.15623909063388e-146
aF0.0
aF0.0
aF8.96595344816157e-31
aF8.76388726007417e-92
aF3.2000895191289695e-143
aF2.2580749019477724e-163
aF1.7859266167036818e-162
aF0.0
aF0.0
aF0.0
aF9.821529752807113e-33
aF4.100733146335528e-146
aF0.0
aF0.0
aF0.0
aF9.361724526306636e-251
aF2.11422696088247e-300
aF0.0045575076739431545
aF6.547857349665785e-165
aF2.218601756520252e-182
aF0.009115015347886309
aF1.5195189279430775e-79
aF1.699053141430113e-30
aF0.0
aF0.0
aF0.0
aF0.0
aF0.0
aF0.0
aF0.0
aF0.0
aF0.0
aF0.0
aF0.0
aF0.004632671221367571
aF0.0
aF0.0
aF0.0
aF0.0
aF0.0
aF0.0
aF0.0
aF0.0
aF0.0
aF0.0045575076739431545
aF0.0045575076739431545
aF1.4996591103089945e-239
aF0.0
aF0.0045575076739431545
aF6.406111319025374e-295
aF0.0
aF3.7057685476860363e-165
aF0.0
aF0.0
aF3.495372520592134e-22
aF9.774119499942119e-303
aF0.0
aF1.888660536236252e-262
aF0.0
aF5.586222179513374e-120
aF0.0
aF0.0
aF0.0
aF0.0
aF0.0
aF0.0045575076739431545
aF0.0
aF1.7458010582740186e-53
aF0.0
aF0.0
aF0.0
aF0.0
aF0.0
aF0.0
aF9.674753215509358e-150
aF7.550460394919675e-98
aF8.119699003118907e-165
aF0.0
aF1.28015616380081e-309
aF0.0
aF0.0
aF3.535435980572559e-15
aF0.0
aF0.0
aF0.0
aF0.0
aF0.0
aF0.0
aF2.0016951768382807e-147
aF2.11810154192383e-202
aF9.035167063026534e-162
aF0.0
aF0.0
aF8.588289105619209e-299
aF0.0
aF0.0
aF2.0060368688954985e-278
aF1.6603648918413335e-50
aF4.2060577249822654e-290
aF0.0045575076739431545
aF1.5170327970703008e-236
aF0.0
aF2.6146552830143943e-78
aF0.0
aF2.757724433580163e-169
aF0.0
aF0.0
aF0.0
aF0.0
aF0.0
aF0.0
aF5.140532999983466e-104
aF1.5163e-320
aF2.2101773528681505e-232
aF0.0
aF0.0
aF0.0
aF0.0
aF2.0420011420037666e-189
aF1.6548552154860968e-121
aF0.0045575076739431545
aF0.0
aF0.0
aF0.0
aF0.0
aF1.1895863064759334e-277
aF1.613821098595062e-163
aF0.0
aF0.0
aF0.0
aF0.0
aF0.0
aF0.0
aF0.0
aF0.0
aF0.0
aF0.0
aF1.0693080428801857e-139
aF0.0045575076739431545
aF0.0
aF8.1328237072404e-169
aF1.2748658990946906e-218
aF0.0
aF0.0
aF0.0045575076739431545
aF0.0
aF2.9388841258146962e-90
aF8.487353475590843e-187
aF7.148671381618228e-128
aF1.737013235950335e-156
aF0.0
aF7.7481916166246925e-236
aF8.131980002628365e-141
aF0.0
aF0.0
aF0.0045575076739431545
aF0.0
aF0.0
aF0.0
aF2.7964247394810933e-161
aF0.0
aF0.0
aF3.882061965268589e-167
aF3.7720865145423573e-140
aF0.0
aF0.0
aF7.807841438144533e-60
aF2.9256537906251976e-129
aF0.0
aF1.5164837486915875e-234
aF2.184149327873588e-224
aF0.0
aF0.0
aF0.0045575076739431545
aF1.0139479304350328e-151
aF0.0045575076739431545
aF4.003649469501424e-228
aF4.970728356363212e-150
aF3.479580758510606e-205
aF2.9143103578745334e-80
aF0.0
aF0.0
aF2.5187788854600783e-99
aF4.592769701014724e-42
aF0.0045592813195328066
aF0.0
aF0.0
aF2.8308280614495565e-115
aF0.0
aF0.0
aF9.156482829374218e-155
aF0.0
aF2.8110713143054107e-115
aF0.0
aF0.0
aF2.213961309277929e-114
aF9.544305707405457e-162
aF5.859994466251358e-163
aF0.0045575076739431545
aF7.372730196170896e-153
aF3.930690909576007e-141
aF0.0
aF0.0
aF0.0
aF0.0
aF0.0
aF4.6272036516075685e-135
aF1.145061536047542e-67
aF0.0
aF2.4458455123794705e-269
aF1.1078398923255721e-215
aF8.225743397497965e-93
aF0.0045575076739431545
aF1.4451061006348656e-162
aF3.8344495016687917e-159
aF0.0045575076739431545
aF0.0
aF8.072873599646626e-191
aF8.517371382811698e-67
aF0.0
aF2.7496680424819616e-231
aF0.0
aF5.125155693925729e-51
aF0.0
aF0.0
aF6.34617472836673e-176
aF0.0
aF0.0
aF3.1742963711977e-234
aF0.0
aF0.0
aF0.0
aF3.687643027365318e-145
aF1.024468758787997e-166
aF1.2417099560484135e-158
aF0.0045575076739431545
aF2.5701042139072375e-212
aF9.587160998666764e-14
aF0.0
aF0.0
aF0.0
aa(lp24
F0.048860362056343164
aF1.1850228673951988e-257
aF1.0669262059329906e-60
aF0.0
aF9.802556489924467e-85
aF5.991651215375816e-155
aF0.009268650198585122
aF7.270280172988648e-19
aF3.875593693718744e-148
aF1.4683393246575033e-61
aF0.0
aF0.014205920744029692
aF0.0
aF1.141804719589201e-244
aF2.7173274936252236e-148
aF0.009541521864616811
aF0.0
aF7.265163673919751e-245
aF6.24654549493388e-98
aF3.8757525125024757e-128
aF0.0
aF1.8963336498122266e-289
aF2.0800094958505844e-119
aF0.0
aF0.048175932522014894
aF0.0
aF0.0
aF0.0
aF0.006910325950713018
aF0.006857780852708413
aF0.09676240269666599
aF0.0
aF0.013698334099742823
aF4.930611009664103e-66
aF3.5298345548161663e-56
aF0.05917552173178707
aF0.0
aF0.0
aF1.691465394565181e-134
aF0.0
aF9.062045617466527e-157
aF0.0
aF1.7308466094585448e-305
aF3.212206678409432e-238
aF0.0
aF0.0
aF0.0
aF0.0
aF0.0
aF1.0365710870578637e-188
aF0.0
aF0.0
aF1.2835324800165556e-109
aF5.8977812588557496e-179
aF0.0
aF0.0
aF4.960331669538245e-209
aF7.136324399889246e-169
aF0.0
aF3.557109280584736e-302
aF0.013233137780841623
aF0.0
aF0.0
aF0.0
aF0.0
aF1.6093018412643752e-32
aF0.0
aF0.006860569919234832
aF0.0
aF3.512530828947858e-69
aF5.160091115370779e-259
aF4.7584347491418684e-82
aF0.0
aF1.6152338734905684e-72
aF3.79909397e-316
aF8.014488033890942e-135
aF0.03838263714248787
aF3.7096244591e-313
aF0.0
aF0.0
aF1.0514888668274735e-224
aF0.0
aF0.0
aF3.3297776707086585e-97
aF2.226428507145937e-86
aF0.0
aF0.0
aF0.007100138441247023
aF0.0
aF0.0
aF0.0
aF0.0
aF4.250781323146928e-251
aF0.0
aF2.2742729360116218e-90
aF0.0
aF0.0
aF0.009912592929961887
aF1.7811966675225066e-188
aF0.0
aF0.010931195520932732
aF4.04754980677286e-43
aF0.0
aF0.0
aF1.8846016242651642e-05
aF7.340970064669596e-174
aF0.0
aF0.006913620559790046
aF0.0
aF0.0
aF0.0068687370755171565
aF0.0
aF0.0
aF0.0
aF0.012086356980827816
aF0.0
aF1.4158599774643097e-119
aF4.1657684036732926e-302
aF1.7274071486373696e-120
aF0.0
aF0.0
aF0.0
aF0.0
aF0.034313220825414444
aF0.0
aF0.0
aF0.0
aF0.0
aF2.256782989929946e-132
aF0.0
aF7.29113791391518e-224
aF0.01784727337934194
aF0.0
aF0.0
aF8.442177089867282e-57
aF0.006477829398272822
aF0.012234443978058942
aF2.6209995775187114e-139
aF0.007091234263801684
aF0.0
aF0.0
aF0.03974863122868607
aF2.6555182664626707e-245
aF0.014182043777792561
aF0.0
aF7.893158934404198e-274
aF0.0
aF0.03150804245012323
aF0.0
aF4.753715680053383e-244
aF0.0
aF0.0
aF7.972258414489366e-91
aF0.0
aF8.995021344741251e-217
aF0.0
aF1.9666243507011367e-74
aF4.968520223322992e-93
aF8.409616805891347e-26
aF5.659181407976599e-54
aF2.639502854837485e-134
aF1.4124979973607671e-195
aF1.6896499878869348e-63
aF0.0
aF1.248927514785233e-249
aF0.0
aF0.0
aF0.0
aF0.0
aF0.020581709757704496
aF2.78968723963116e-122
aF0.0
aF2.3277392942729072e-213
aF0.014900208407451886
aF0.0
aF0.006894133494329013
aF0.0
aF3.51e-321
aF0.0
aF0.0
aF0.0
aF4.275129356789957e-184
aF7.010220674824772e-87
aF2.421909997198839e-47
aF0.0
aF6.014485819527747e-06
aF0.0
aF0.019248527224823453
aF0.0
aF0.0
aF0.0
aF0.0
aF2.44938662802478e-74
aF0.0
aF0.0
aF0.0
aF7.007328584032037e-138
aF2.41954825390557e-266
aF0.0
aF0.0
aF1.314679180933187e-201
aF0.0
aF5.3123748537528924e-282
aF5.530970121534646e-156
aF1.163550889649493e-116
aF0.0
aF7.1772903504353645e-71
aF3.818733050172517e-78
aF0.0
aF0.0
aF0.0
aF1.5273131863249726e-278
aF0.0
aF7.7796285350597e-159
aF3.2661873384788233e-199
aF0.0
aF0.0
aF0.0
aF0.0
aF0.0
aF0.0
aF2.1585275351598587e-181
aF0.0
aF1.650176728648347e-288
aF0.0
aF0.0
aF2.4026712939021314e-232
aF2.8203553812442203e-216
aF4.043184239489029e-85
aF0.006860569919234832
aF0.0
aF0.0
aF4.117386295301358e-13
aF3.0386300924851577e-35
aF0.0
aF1.3214610755767305e-206
aF0.0
aF0.0
aF4.599223875753521e-187
aF3.414920451824974e-134
aF1.0905446284013239e-196
aF0.0
aF5.7837730136656844e-142
aF4.683395228196051e-55
aF3.55679630507111e-94
aF0.0
aF0.0
aF0.0
aF0.0
aF0.0
aF1.0758361347546549e-16
aF0.0
aF0.006860569919234604
aF0.0
aF0.0
aF0.006860569919234832
aF0.0
aF0.006860740599535707
aF6.686155346245578e-206
aF0.0
aF0.0
aF1.2542888471826906e-151
aF0.0
aF1.6965976934009596e-130
aF0.0
aF0.0
aF8.419960542487167e-265
aF0.0
aF0.0
aF0.006110150786779336
aF0.0
aF0.0
aF0.0
aF0.0
aF0.0
aF0.0
aF0.0
aF0.0
aF0.0
aF4.775285658194826e-234
aF0.0
aF0.0
aF0.0
aF3.944146343812717e-253
aF0.0
aF0.006860569919234832
aF2.1286308585071887e-90
aF0.0
aF0.0
aF0.0
aF0.0
aF1.2544868957308367e-105
aF0.0
aF0.0
aF0.0
aF2.4114129321875114e-69
aF0.0
aF0.0
aF1.5841246040417721e-251
aF0.0
aF0.0
aF0.0
aF0.013721139838469664
aF0.0
aF8.812762142145934e-36
aF5.794677545916404e-309
aF2.3650243929241663e-142
aF0.02057499410278137
aF0.0
aF1.8359426803477413e-137
aF7.949214112922224e-138
aF0.013745885103525734
aF0.0
aF0.0
aF0.0
aF0.0
aF0.0
aF2.0865317069705895e-191
aF0.0
aF0.0
aF0.0
aF1.484107238250414e-246
aF0.0
aF5.9014461781063006e-55
aF0.0
aF0.0
aF5.0802264329846345e-23
aF1.3350259310485e-311
aF0.0
aF0.006860569919234832
aF3.658553249629977e-154
aF0.0
aF1.8415006000188884e-79
aF2.7429135564736937e-304
aF0.0
aF0.0
aF0.0
aF0.0
aF5.23562131969236e-98
aF2.5905263721222787e-61
aF0.0
aF0.0
aF0.0
aF6.2009115214031836e-74
aF0.0
aF2.100583969862539e-96
aF6.918310049207988e-171
aF0.0
aF0.0
aF0.0
aF0.0
aF8.565326511868623e-282
aF3.0580824139885773e-122
aF4.93629016835028e-125
aF3.7843775756207016e-101
aF7.068386154871708e-176
aF1.4336295650987734e-282
aF6.808139845931219e-84
aF0.0
aF0.0
aF6.050969817879747e-247
aF4.531388131892298e-235
aF0.0
aF1.4522858071e-313
aF6.43046403998899e-283
aF0.0
aF1.3846842060903612e-184
aF5.266901362635289e-130
aF0.0
aF0.0
aF2.6707737905466935e-60
aF3.3572672620088135e-296
aF0.0
aF0.0
aF9.929333659230403e-128
aF0.0
aF0.0
aF0.0
aF4.2256584680443425e-136
aF0.0
aF0.0
aF1.9187647231055901e-221
aF6.505753964381604e-133
aF0.0
aF0.0
aF0.0
aF0.0
aF0.013721139838469664
aF0.0
aF0.0
aF0.0
aF0.0
aF0.0
aF0.0
aF8.555417377744786e-62
aF0.0
aF0.0
aF0.0
aF0.0
aF2.189439342497367e-257
aF0.0
aF0.0
aF3.4449535466119464e-236
aF0.0
aF0.0
aF0.0
aF0.006860569919234832
aF0.0
aF1.1174673059251532e-193
aF2.238142368565109e-193
aF0.0
aF0.0
aF0.0
aF4.6372866103568004e-186
aF0.006860873058839833
aF2.537025122330597e-122
aF2.7209530663356392e-83
aF0.0
aF0.0
aF0.006860569919234832
aF5.037253704759468e-183
aF0.0
aF6.21741598856445e-300
aF0.0
aF0.0
aF1.798177152708281e-30
aF5.497448887418581e-240
aF0.0
aF0.0
aF1.92105891489343e-303
aF0.0
aF3.8066617437041414e-196
aF0.0
aF0.0
aF0.0
aF0.0
aF0.0
aF7.350430179299305e-186
aF0.0
aF0.0
aF8.233312449155889e-277
aF0.0
aF0.0
aF0.0
aF0.0
aF0.0
aF0.0
aF0.0
aF0.0
aF0.006860569919234823
aF0.0
aF8.355671611051484e-180
aF0.0
aF0.0
aF0.0
aF4.7404985833223626e-42
aF0.0
aF0.0
aF0.0
aF2.24492088738495e-198
aF0.0
aF4.040535862742656e-134
aF0.0
aF0.006860569919234832
aF0.0
aF0.006860569919234832
aF0.0
aF0.013721139838469664
aF0.0
aF0.0
aF0.0
aF0.01377019372898097
aF0.0
aF0.0
aF0.0
aF0.0
aF0.0
aF0.0
aF6.119306724990088e-280
aF0.0
aF0.0
aF1.6477588796842005e-23
aF1.812109241482905e-259
aF0.0
aF0.0
aF0.0
aF0.0
aF0.0
aF0.0
aF3.89543760935599e-304
aF0.0
aF1.087524312129696e-177
aF0.0
aF0.0
aF0.0
aF0.0
aF0.006860569919234832
aF2.3170726112598954e-305
aF2.551515411549372e-137
aF0.0
aF6.178722298157135e-251
aF0.0068461897336839625
aF0.0
aF0.0
aF0.0
aF0.0
aF0.0
aF0.0
aF0.0
aF0.0
aF0.0
aF2.495367224515258e-146
aF0.0
aF0.006860569919234832
aF0.0
aF0.0
aF0.0
aF0.0
aF0.006860569919234832
aF0.0
aF3.072189878517673e-103
aF0.0
aF0.0
aF1.6613090958802528e-122
aF0.0
aF0.0
aF0.0
aF1.902736702234734e-211
aF0.0
aF0.0
aF0.0
aF0.0
aF0.0
aF0.0
aF0.0
aF0.0
aF1.0932575553580894e-183
aF0.0
aF0.0
aF0.0
aF0.0
aF0.0
aF0.0
aF0.0
aF0.0
aF0.0
aF0.0
aF0.0
aF0.0
aF0.0
aF0.0
aF0.0
aF6.532711776423141e-79
aF0.006860597549435481
aF9.004750177379265e-125
aF2.501e-320
aF0.0
aF0.0
aF4.383841546751418e-121
aF1.2429378417527834e-36
aF0.0
aF0.006860569919234832
aF0.0
aF4.156047998557976e-231
aF0.006860569919234832
aF0.0
aF0.0
aF0.0
aF7.277544580688458e-225
aF0.0
aF0.0
aF6.58354594459036e-207
aF0.0
aF0.0
aF0.0
aF0.0
aF0.0
aF0.0
aF0.0
aF0.0
aF0.0
aF6.687561721313286e-141
aF0.0
aF0.0
aF0.006860569919234832
aF0.0
aF0.0
aF0.0
aF0.0
aF0.0
aF0.006860569919234832
aF0.0
aF0.0
aF0.0
aF0.0
aF0.0
aF0.0
aF0.0
aF0.0
aF0.0
aF0.0
aF0.006860569919234832
aF0.0
aF0.0
aF0.0
aF0.0
aF0.0
aF0.0
aF0.0
aF7.23233e-319
aF0.0
aF3.225931683591189e-306
aF0.013721139838469664
aF0.0
aF1.8819844507214434e-22
aF0.0
aF0.0
aF0.0
aF0.006860569919234832
aF0.0
aF0.0
aF0.006860569919234832
aF1.3080095898011616e-196
aF2.6097029502361996e-129
aF0.0
aF0.0
aF0.0
aF0.006860569919234832
aF0.0
aF0.0
aF0.0
aF0.006860569919234832
aF0.0
aF0.0
aF0.0
aF0.0
aF0.013721139838469664
aF0.0
aF0.0
aF0.0
aF0.0
aF0.0
aF0.0
aF1.694878524207777e-95
aF1.263294754820221e-31
aF0.0
aF0.0
aF0.0
aF1.8374743844957617e-272
aF2.6783959128474e-311
aF0.0
aF0.0
aF0.0
aF1.5799020547768805e-252
aF0.006860569919234832
aF0.0
aF0.0
aF0.0
aF1.0570824032452336e-222
aF0.0
aF0.0
aF0.0
aF3.453168445962945e-90
aF0.0
aF5.613002483102328e-202
aF0.0
aF6.367195480943808e-212
aF0.0
aF0.0
aF0.0
aF0.0
aF0.0
aF0.0
aF0.0
aF0.0
aF0.0
aF0.006860569919234832
aF0.0
aF1.8892368164176353e-142
aF0.0
aF0.0
aF0.0
aF1.688945414329237e-243
aF0.0
aF0.0
aF2.1709681040548257e-121
aF0.0
aF3.866667276224212e-301
aF4.430504434731352e-140
aF0.0
aF0.0
aF1.0250729956280188e-05
aF0.0
aF0.0
aF0.0
aF0.0
aF0.0
aF0.0
aF8.007242645966608e-141
aF4.368574200140925e-283
aF0.0
aF0.0
aF0.0
aF1.07597641705938e-309
aF0.0
aF0.0
aF4.131176285691273e-117
aF0.0
aF0.0
aF0.0
aF0.0
aF0.0
aF0.0
aF0.0
aF0.0
aF0.0
aF0.0
aF4.650471051951831e-79
aF0.0
aF8.248631314667999e-244
aF4.8050605287084645e-132
aF0.0
aF0.0
aF0.0
aF0.0
aF5.518433245071556e-298
aF0.0
aF0.0
aF0.0
aF0.0
aF0.0
aF0.0
aF0.0
aF0.0
aF0.0
aF4.37808784028545e-93
aF0.0
aF0.0
aF0.0
aF0.0
aF0.0
aF5.05969008152194e-288
aF0.0
aF1.080326950459628e-16
aF0.0
aF4.1254509753813346e-37
aF1.4313683776096108e-66
aF0.0
aF0.0
aF0.0
aF0.0
aF0.0
aF0.0
aF0.0
aF0.0
aF0.0
aF2.9376683620292375e-149
aF7.332292495582105e-180
aF0.0
aF0.006860569919234832
aF1.0741229718988234e-53
aF0.0
aF0.0
aF0.0
aF0.006860569919234832
aF0.0
aF0.0
aF0.0
aF0.0
aF0.0
aF2.9470509706834356e-214
aF0.0
aF0.0
aF0.0
aF1.3261627582736405e-69
aF0.0
aF3.276194e-318
aF0.0
aF0.0
aF0.013721139838469664
aF0.0
aF1.5998897111740144e-102
aF0.0
aF0.006860569919234832
aF0.0
aF0.0
aF0.0
aF0.0
aF0.0
aF0.0
aF6.839049855250188e-283
aF0.0
aF9.273229332616733e-193
aF0.0
aF2.3739595543379038e-104
aF0.0
aF0.0
aF2.9352834674048874e-29
aF0.0
aF0.0
aF0.0
aa(lp25
F2.4351838557986767e-46
aF0.0
aF0.05155246735776278
aF1.0125580841024395e-191
aF0.017538417412351442
aF0.0
aF1.467892885592384e-36
aF0.0
aF3.687120072177272e-92
aF3.748735691997547e-100
aF0.006146750410027274
aF5.976425681995661e-300
aF0.0
aF0.0
aF0.0
aF0.0024296106334352656
aF1.818767202317222e-54
aF0.006451101009629088
aF2.4262646606279494e-114
aF1.8816297216463264e-206
aF0.0
aF4.18290307219305e-137
aF2.148817129196959e-260
aF0.0
aF0.013470380676468979
aF2.8808300159916495e-33
aF0.0
aF1.0464919795193403e-117
aF1.1188858487416866e-212
aF0.0
aF0.0
aF0.006146750410027071
aF3.4849692939963185e-108
aF3.2284825327888803e-87
aF0.033032775382795754
aF2.240816921528534e-124
aF0.0
aF0.0
aF0.006146750410030891
aF0.006726626463735696
aF0.006661527380367107
aF0.0
aF0.006167283914963674
aF0.0
aF0.0
aF0.0
aF0.006146750410027274
aF0.0
aF6.802662651343713e-107
aF3.199895961766181e-170
aF6.182887553731477e-113
aF0.0
aF1.2042696321620013e-132
aF2.926582567904521e-229
aF0.0
aF0.0
aF2.1686370937651203e-05
aF1.699932341484752e-16
aF0.0
aF1.6944745564296226e-162
aF1.2477521147610817e-86
aF2.903279283604759e-258
aF9.495021056565328e-14
aF0.0
aF0.0
aF0.01304285515590302
aF2.836269933949937e-240
aF0.0
aF0.0
aF2.125346480023356e-213
aF0.0
aF0.0
aF3.5918946298625233e-115
aF4.751180718186117e-159
aF0.006146750410027274
aF0.0
aF1.3454903121976502e-49
aF6.0825149115320376e-114
aF0.0
aF0.0
aF0.0
aF0.0
aF3.2799277420577184e-159
aF0.0
aF1.7029060901556102e-61
aF0.0
aF0.0
aF0.04895936106707211
aF1.9406515413251255e-35
aF0.0
aF0.006146750410027274
aF3.4520998420914207e-118
aF1.2866880850671697e-12
aF0.0
aF0.0
aF7.76845864802002e-118
aF0.0
aF0.0102108463371945
aF2.317117462259708e-117
aF0.0
aF0.0190082796369284
aF2.3259387113676997e-175
aF4.313913879906572e-118
aF0.0
aF0.0
aF0.006146750410027302
aF0.0
aF0.020487923406156475
aF1.0444489677117922e-190
aF2.499055354746479e-263
aF0.0
aF1.0002597517255553e-215
aF0.0
aF0.006146750410027274
aF0.0
aF0.0
aF8.505146165116091e-137
aF0.0
aF1.8624227579044163e-297
aF0.0
aF0.0
aF0.0
aF2.8903500752058375e-119
aF0.012284208682763378
aF0.012293500820054547
aF0.0
aF0.0
aF6.2822299257949964e-142
aF7.653468420826055e-139
aF0.0
aF0.035979941408975064
aF0.012859921070977887
aF0.0
aF0.0
aF0.013458970760506795
aF1.5529463928546163e-61
aF9.749497920098606e-78
aF0.04191557599884863
aF3.8111165675802105e-158
aF0.0
aF8.765378126359593e-283
aF0.0012675842654316686
aF1.6484126200813817e-267
aF3.192955174199173e-126
aF0.006146750410027274
aF2.328453968625141e-46
aF6.927367691937828e-14
aF0.04363686637261601
aF4.844170142849627e-106
aF0.006146750410027274
aF0.0
aF0.006146750410027274
aF1.0202572240780244e-32
aF2.1088313199586946e-113
aF1.238268393180421e-104
aF0.0
aF1.9687970923016643e-80
aF0.0
aF0.0
aF3.96575927087678e-11
aF0.0
aF1.5317808460757185e-60
aF1.0456940256944566e-54
aF1.021103456064009e-109
aF0.0
aF0.0
aF0.0
aF0.018440251230081823
aF0.0
aF0.0
aF7.774385790734923e-81
aF0.0
aF3.4600307189046256e-56
aF1.690349373319757e-41
aF0.0
aF3.2843497710973087e-171
aF5.593038025382157e-211
aF7.746599873042674e-58
aF0.0
aF4.223824343097014e-109
aF0.0
aF1.270419609018869e-44
aF0.0064065018040002164
aF6.073280510101449e-265
aF6.256609894681063e-89
aF0.0
aF0.0
aF1.9110836687173594e-178
aF8.749503519039442e-109
aF0.0
aF9.256106120810075e-88
aF0.0
aF0.018797787766806677
aF8.834891526574496e-58
aF7.59549715152558e-192
aF0.0
aF6.513185945080728e-284
aF0.026876336660655652
aF0.0
aF0.006343087392848479
aF0.0
aF1.5891618018272834e-208
aF0.0061467504100273206
aF2.701146639930435e-74
aF0.015759834612274513
aF1.0433349110361694e-92
aF0.02566891136969727
aF0.006146750410027274
aF0.006667786043775308
aF0.006146750410027274
aF0.0
aF0.0062215662878290405
aF0.0
aF0.0
aF0.0
aF0.0
aF0.006146750410027274
aF9.170401601739167e-17
aF0.0
aF0.0
aF0.0
aF0.0
aF0.0
aF0.0
aF0.0
aF1.2901814210886082e-105
aF4.959179177711341e-138
aF9.095731422545638e-159
aF9.815959920653942e-44
aF0.0
aF5.826272883629608e-211
aF0.0
aF0.006146750409965123
aF1.7740830890266413e-106
aF5.833342024193015e-294
aF0.0
aF5.674843052770134e-118
aF0.0
aF2.030111964224836e-200
aF1.0657311889464311e-84
aF3.721091849203567e-55
aF0.0
aF0.0
aF0.012283766315442536
aF0.0
aF2.0419080017891475e-106
aF0.0
aF5.607192578229552e-118
aF0.0
aF0.0
aF0.0
aF5.835866411681131e-115
aF0.0
aF0.0
aF0.0
aF0.0
aF0.0
aF0.0
aF0.0
aF0.0
aF0.0
aF0.0
aF0.018440251230081823
aF1.2181888751364904e-156
aF0.0
aF2.4624571542332e-106
aF0.012264673065185505
aF1.9842733143077184e-134
aF0.006146750410027274
aF0.0
aF0.0
aF6.018397365506956e-132
aF0.0
aF0.0
aF0.006146750410027274
aF1.5498499761914421e-114
aF5.484574636823181e-171
aF0.0
aF0.006146750410027274
aF1.4749241725172387e-86
aF5.62465923086936e-119
aF0.0
aF1.1542629664550221e-115
aF0.0
aF0.0
aF0.0
aF0.0
aF1.0303307082221827e-83
aF1.9429240329630523e-171
aF0.0
aF0.0
aF0.0
aF2.6466680806215702e-105
aF1.185429748697017e-215
aF3.912873243725393e-155
aF0.006146750410027274
aF0.0
aF0.0
aF0.012293500820054547
aF0.0
aF0.006146750410027274
aF1.2932576998339866e-180
aF0.0
aF1.6586035838547583e-14
aF0.0
aF3.8935555874292874e-16
aF3.3081547917314013e-149
aF0.007835378854437672
aF3.776277162573468e-134
aF0.0
aF1.790603711628666e-271
aF0.004728811464567153
aF0.0
aF0.0
aF0.0
aF0.0
aF0.006146750410027274
aF1.5678732592667635e-43
aF8.781557166928588e-89
aF0.006146750410027274
aF8.513016206582561e-110
aF3.905738186938838e-211
aF0.0
aF0.0
aF0.0
aF4.211415468558877e-94
aF0.0
aF1.6005069220018997e-110
aF5.8037648525434e-244
aF0.0
aF0.0
aF0.0
aF0.0
aF5.825670818964935e-41
aF0.0
aF0.0
aF5.726968801754928e-54
aF3.273245540072632e-102
aF8.748866641182673e-151
aF0.0
aF0.0
aF2.4204586338272486e-105
aF1.5501714048268026e-93
aF0.0
aF0.0
aF0.0
aF1.4704483268060657e-111
aF0.0
aF1.8972398230943865e-152
aF0.0
aF2.6621235704719865e-119
aF1.2122417449108785e-26
aF1.1533972486752483e-114
aF1.360826990802624e-14
aF0.0
aF7.816691877580092e-260
aF8.950686745118775e-206
aF0.0
aF0.0
aF0.006146750410027274
aF0.0
aF0.005969489081765405
aF2.671434259777715e-109
aF3.903537388895627e-267
aF0.0
aF1.4619965556943261e-213
aF0.0
aF1.6256516013997356e-13
aF0.0
aF0.0
aF0.0058353344410528776
aF0.0
aF0.006146750410027274
aF0.0
aF1.5101645892318903e-110
aF2.5668278251218595e-171
aF0.0
aF0.0
aF0.0
aF2.2162935084820185e-214
aF0.0
aF0.0
aF0.0
aF0.0
aF0.0
aF8.001055338020719e-115
aF0.0
aF3.877556570132634e-112
aF0.0
aF2.3914751858284452e-118
aF0.0
aF9.901941849896707e-136
aF6.008511673086617e-212
aF0.0
aF0.0
aF5.996296841462638e-211
aF0.0
aF3.087531076954665e-286
aF2.6540414855151285e-208
aF0.0
aF0.0
aF0.0
aF0.0
aF1.0422888919362544e-212
aF0.0
aF0.012293500820054547
aF0.0
aF0.0
aF1.7108969840486215e-15
aF0.0
aF0.0
aF1.2148742065902625e-107
aF3.7023852552548357e-208
aF0.0
aF9.231183192017579e-29
aF2.041330290539772e-42
aF0.0
aF0.0
aF0.006146666348495801
aF0.0
aF0.0
aF0.0
aF5.332872019685253e-102
aF0.0
aF0.0
aF2.6393592306609187e-59
aF1.8319578245103106e-74
aF0.0
aF0.0
aF0.0
aF0.0
aF0.0
aF0.0
aF0.0
aF1.939053175043714e-178
aF3.1380297222805436e-111
aF0.0
aF0.0
aF0.0
aF0.0
aF3.3542578950062383e-54
aF1.805925373028958e-16
aF0.0
aF0.006690297789243543
aF0.006146750410027274
aF0.0
aF1.410067617591844e-121
aF0.0
aF0.0
aF0.0
aF0.0
aF0.0
aF2.0967220259400214e-113
aF0.0
aF0.03073375205013637
aF1.208934145024636e-103
aF7.2282701123690105e-115
aF0.0
aF4.814614721269937e-24
aF0.0
aF2.055309928503902e-213
aF0.0
aF2.5272572037128545e-237
aF0.0
aF0.0
aF0.0
aF0.0
aF2.5977e-319
aF0.006019294194735869
aF0.0
aF5.173785991436734e-192
aF1.4919728885542683e-133
aF0.0
aF0.0
aF7.211344226290155e-14
aF0.0
aF0.0
aF3.4365294543036825e-184
aF0.0
aF7.502346584694695e-83
aF0.0
aF0.0
aF0.0
aF0.006146750410027274
aF0.0
aF7.837047264273689e-60
aF8.719898626970658e-129
aF6.345583034880822e-105
aF2.8434319903425113e-211
aF0.0
aF0.0
aF0.0
aF0.0
aF0.0
aF1.8614315803142446e-117
aF0.0
aF0.0
aF1.0564585073786917e-131
aF3.7718342568829045e-237
aF0.0
aF0.0
aF0.0
aF1.2595483536904758e-91
aF0.0
aF0.006146750410027274
aF0.0
aF0.0
aF0.0
aF0.0
aF3.1030410586008424e-109
aF0.0
aF0.0
aF2.5580655699428704e-208
aF0.0
aF0.0
aF0.0
aF1.7599997255821626e-69
aF0.0
aF0.0
aF0.0
aF1.1546134306659709e-143
aF0.006146750410027274
aF6.926135485948963e-189
aF4.849834097612471e-83
aF0.012293500820054547
aF0.0
aF6.572139555959421e-249
aF0.0
aF9.14574645152501e-144
aF0.0
aF1.5139676838536484e-102
aF0.0
aF0.0
aF0.0
aF1.270711442441532e-113
aF0.0
aF3.5097422037015655e-113
aF2.1247853484269824e-112
aF0.0
aF0.0
aF0.0
aF0.0
aF5.839166347765891e-117
aF0.0
aF3.792960751984133e-89
aF0.0
aF0.0
aF0.006146750410027274
aF2.128838302319627e-114
aF0.0
aF0.0
aF0.0
aF0.0
aF0.0
aF0.0
aF0.0
aF0.0
aF0.0
aF2.6293085894323416e-235
aF0.0
aF4.83468124827753e-111
aF0.0
aF0.0
aF1.4181504734544085e-59
aF0.0
aF1.1204999256094896e-88
aF0.0
aF0.006146750410027274
aF0.0
aF0.0
aF7.693899746222709e-60
aF1.2060226374110118e-72
aF0.0
aF3.6798628589896706e-213
aF0.0
aF0.0
aF0.0
aF0.0
aF7.5793428966825485e-292
aF0.0
aF0.0
aF0.0
aF4.247201879764487e-92
aF0.0
aF0.0
aF0.0
aF3.745087425342593e-114
aF0.0
aF0.0
aF2.733002372426516e-115
aF0.0
aF1.4619208891652472e-197
aF0.0
aF1.2687598838095924e-115
aF0.0
aF0.0
aF0.0
aF0.0
aF0.0
aF0.0
aF0.0
aF0.0
aF0.0
aF0.0
aF0.0
aF0.0
aF2.0454060531257566e-191
aF0.0
aF0.0
aF0.0
aF0.0
aF2.6692717355809873e-151
aF0.0
aF0.0
aF0.0
aF0.0
aF0.0
aF5.844377156048125e-119
aF0.0
aF0.008930631589597417
aF0.0
aF6.916944885717671e-272
aF0.0
aF0.0
aF0.006146750410027274
aF1.1382140263950838e-109
aF0.0
aF0.0
aF0.0
aF0.0
aF0.0
aF0.0
aF1.6561418430553405e-39
aF0.0
aF1.365334264067238e-107
aF0.0
aF0.0
aF0.0
aF0.0
aF0.006146750410027274
aF0.0
aF1.46352422995533e-90
aF1.7902949997465611e-84
aF6.78799605271975e-26
aF0.0
aF0.0
aF0.0
aF0.0
aF2.1382108512765473e-84
aF0.0
aF0.0
aF2.9925963507852664e-118
aF0.0
aF0.006146750410027274
aF0.0
aF0.0
aF0.00614675041002729
aF1.2753181279000715e-205
aF5.387304979638666e-252
aF1.9080683781262566e-260
aF3.7211453728730627e-47
aF0.0
aF4.814283272814755e-172
aF6.444727763944431e-213
aF0.0
aF2.920398235008958e-101
aF0.0
aF0.0
aF4.834096577105391e-15
aF0.0
aF0.0
aF1.2318434142805875e-154
aF9.78753442175265e-109
aF0.0
aF0.006146750410027274
aF0.0
aF0.0
aF0.0
aF0.0
aF8.281177890181512e-116
aF0.0
aF6.711606473939357e-264
aF0.0
aF0.0
aF0.0
aF7.349376623014277e-82
aF0.0
aF0.006146750410027274
aF0.0
aF3.9323958182518287e-199
aF1.1951818824387779e-114
aF0.0
aF0.0
aF0.0
aF1.2987599260141103e-160
aF0.0
aF1.0857566018381628e-237
aF9.390785434212607e-61
aF0.0
aF0.0
aF0.0
aF0.0
aF0.0
aF0.0
aF6.784802832293999e-162
aF0.0
aF8.119486746023658e-305
aF0.0
aF7.292792682925004e-115
aF0.0
aF0.006146750410027274
aF7.137643909679749e-107
aF0.0
aF0.006146750410027274
aF0.0
aF1.0239064148866681e-150
aF3.831966656102078e-283
aF0.006146750410027274
aF0.0
aF0.0
aF2.9556853929307873e-258
aF0.0
aF0.0
aF0.0
aF0.0
aF0.0
aF1.0102038596177268e-97
aF1.2070747333724062e-56
aF2.1349169261184946e-227
aF2.7615535543420524e-286
aF0.0
aF0.0
aF0.0
aF7.510173811536937e-179
aF0.0
aF0.0
aF0.006146750410027274
aF1.8519078900058264e-195
aF0.006146750410027274
aF0.0
aF0.0
aF0.0
aF4.91616011189426e-113
aF0.0
aF0.00614435827872758
aF1.902510394767201e-130
aF7.864070139284324e-113
aF8.290279280189463e-142
aF0.0
aF0.0
aF0.0
aF0.0
aF0.0
aF0.0
aF0.0
aF0.0
aF0.0
aF0.0
aF0.0
aF7.105992476351794e-139
aF1.564126183391633e-282
aF1.5328572781484993e-108
aF0.0
aF0.0
aF0.0
aF0.0
aF5.977865373194258e-60
aF0.0
aF0.0
aF3.4454287045206826e-108
aF0.0
aF2.2899900196853114e-108
aF0.0
aF0.0
aF0.0
aF0.0
aF7.899602118065533e-103
aF0.0
aF0.0
aF0.0
aF1.261221173731797e-103
aF2.900054219131574e-107
aF0.0
aF0.0
aF0.006146750410027274
aF0.0
aF0.0
aF0.0
aF7.655466261294578e-150
aF0.006146750410027274
aF0.0
aF0.0
aF1.03223519205048e-97
aF0.0
aF0.0
aF0.0
aF0.0
aF0.0
aF5.395461893646713e-222
aF0.0
aF0.0
aa(lp26
F7.673131661294221e-110
aF0.0
aF5.84476238320974e-114
aF0.009247968075300456
aF1.6486150871919872e-68
aF0.0
aF9.726333168463569e-254
aF0.0
aF7.856359479034171e-54
aF0.25172768832064324
aF0.0
aF7.515497681616045e-152
aF0.0
aF0.0
aF0.0
aF3.05658572832422e-119
aF3.337503621198369e-61
aF4.982504877188079e-256
aF2.142104921630696e-59
aF0.026620901288214052
aF0.0
aF7.218783909672905e-179
aF0.009209577941296631
aF2.7705312447919355e-85
aF2.5827190518275307e-138
aF1.033986221073902e-214
aF0.0
aF0.0
aF0.009249052242134204
aF1.321556002734586e-34
aF0.0445634920235435
aF0.0
aF4.6461696915616896e-58
aF1.6274713137579394e-69
aF2.634463695126945e-128
aF2.6990537424313645e-51
aF0.0
aF0.0
aF7.007096380790913e-172
aF0.0
aF4.460454873468758e-213
aF0.0
aF0.004626166187940978
aF5.773358388852394e-14
aF0.0
aF0.004623984037650228
aF0.0
aF0.0
aF0.0
aF9.428094865082325e-250
aF0.0
aF0.0
aF0.0
aF2.355035297317743e-102
aF0.0
aF0.004623984037650228
aF8.454564308123299e-96
aF2.6871635414524117e-76
aF0.0
aF0.0
aF8.480541458139674e-166
aF0.0
aF3.8164260027608275e-215
aF0.0
aF1.4163388676667718e-168
aF0.008577464771854209
aF0.0
aF3.8170851654844495e-90
aF0.0
aF1.3591591614007838e-176
aF0.0
aF0.0
aF4.228577103829565e-277
aF0.028500167708215195
aF1.4522650542146428e-50
aF0.009662150407514752
aF1.2592357726776966e-61
aF5.248579772000069e-69
aF2.6629718034249184e-222
aF3.665277846012125e-210
aF2.0460876764660232e-140
aF0.0
aF0.0
aF0.004623984037650228
aF8.222793478688637e-163
aF0.0
aF0.0
aF1.3501962099746528e-256
aF7.973078988297834e-128
aF0.0
aF0.0
aF0.0
aF6.54597359579962e-98
aF0.0
aF0.004623984037650228
aF0.0
aF0.0
aF0.0188981694915511
aF9.456066798136264e-99
aF0.0
aF0.030115188762522324
aF4.14862654116858e-152
aF0.0
aF0.0
aF0.0
aF0.0
aF0.0
aF1.1961542847142477e-176
aF0.008943072135672879
aF0.0
aF2.130714593602098e-152
aF6.486611796995996e-196
aF0.0
aF0.0
aF3.950697770253438e-194
aF0.0
aF0.008288864284801488
aF0.0
aF0.01849593615060091
aF5.58700086e-314
aF0.0
aF0.0
aF7.408647095e-315
aF3.551875225356537e-49
aF0.0
aF0.0
aF0.0
aF1.1364089415987914e-133
aF3.055391464349256e-188
aF0.009247968075300456
aF1.878406941177384e-133
aF4.481298396658288e-171
aF0.0
aF0.004623984037650228
aF0.004636708731007003
aF2.2645098049201177e-125
aF0.003681264140391943
aF8.363096103128916e-176
aF1.752742110559006e-289
aF0.0
aF0.004623984038519735
aF9.331105702382517e-30
aF2.8988024219474973e-213
aF2.803717227562324e-218
aF0.0
aF0.004726553727123066
aF1.3652215877604943e-99
aF8.304355696542071e-116
aF0.0
aF0.0
aF0.0
aF0.0
aF6.115971285995382e-43
aF0.0
aF8.392162039521559e-184
aF0.0
aF5.156314444789782e-66
aF0.004623984037650228
aF2.129014476266875e-114
aF5.238721118178097e-200
aF4.679142083812282e-144
aF2.685457195524651e-212
aF0.004654232668230062
aF1.980665577568317e-186
aF0.0
aF0.0
aF0.004623984037650228
aF0.0
aF9.315824733117992e-100
aF0.0
aF2.5855358850616666e-156
aF1.497037763848087e-154
aF1.1377462734956162e-141
aF6.1816460265448374e-111
aF0.0
aF1.2565295815527151e-157
aF1.2470454940561863e-210
aF1.9870919859475894e-174
aF0.0
aF4.836356982190922e-196
aF0.0
aF0.0
aF2.2935493156087534e-159
aF1.6603638802166115e-23
aF1.0580259729710583e-204
aF0.0
aF0.0
aF1.6606098809983278e-85
aF0.0
aF0.0
aF0.0
aF0.0
aF0.009845696448416513
aF0.0
aF0.0
aF0.0
aF0.013871923567055225
aF3.473173128519911e-86
aF0.0
aF5.6409255848666244e-95
aF0.0
aF6.171883021162139e-195
aF0.0
aF5.679814993351125e-123
aF6.527750564783461e-131
aF1.343834431511474e-202
aF0.0048414139197280786
aF1.5615700853132807e-273
aF1.5014863333638496e-92
aF0.0
aF0.0
aF1.0473259429831983e-185
aF4.680094820790347e-238
aF0.0
aF3.444232830373934e-162
aF0.0
aF0.004623984037650228
aF1.5153142177047604e-104
aF0.0
aF0.004623984037650228
aF7.644750444974529e-235
aF0.0
aF1.1950128803697469e-76
aF0.004623983628347951
aF0.0
aF0.004623984037650228
aF1.2265005996416347e-49
aF5.512815651565547e-187
aF0.004794967212141126
aF0.0
aF0.004623984037650228
aF0.0
aF5.686644430508915e-208
aF0.0045372947194848735
aF0.0
aF0.004623984037650228
aF0.0
aF0.0
aF1.503509150903042e-248
aF9.567864382870391e-88
aF1.432952985329528e-06
aF0.0
aF7.800916532811627e-117
aF1.5464388330329292e-118
aF0.004623984037650228
aF0.0
aF1.4773423450522266e-228
aF0.0
aF0.0
aF0.0
aF0.004623979642490325
aF2.9784249727005015e-246
aF6.749001282660981e-238
aF0.0
aF0.0
aF0.0
aF1.2606625065014343e-89
aF0.0
aF2.741221381890281e-91
aF0.0
aF6.72916303668465e-201
aF0.004623984037650228
aF1.2656870827431773e-132
aF0.01849593615060091
aF9.872192529747776e-238
aF0.0
aF1.2024552228314295e-111
aF0.0
aF4.372709898020207e-22
aF1.0929662724746491e-211
aF0.0
aF2.03039121215787e-275
aF0.0
aF0.0
aF0.0
aF0.0
aF0.0
aF0.004623984037650228
aF0.0
aF0.0
aF0.0
aF0.0
aF0.0
aF0.0
aF0.0
aF0.0
aF0.004623984037650228
aF1.7654980842790115e-212
aF0.0
aF0.0
aF1.238424793677467e-266
aF0.0
aF0.0
aF1.0012711660077571e-200
aF0.0
aF0.0
aF0.0
aF0.004623984037650228
aF0.0
aF0.004623984037650228
aF0.0
aF0.0
aF2.1684589683125127e-57
aF5.658671380983096e-103
aF0.0
aF0.009247968075300162
aF3.627532761160517e-157
aF9.992566057373954e-37
aF0.0
aF0.0
aF1.6682160671890165e-152
aF6.064192852502064e-270
aF7.788538552358552e-170
aF1.9396429253674253e-298
aF0.0
aF0.00462398404283201
aF0.0
aF3.3116911767502565e-119
aF0.0
aF0.0
aF0.0
aF0.0
aF0.0
aF3.467591860842951e-139
aF0.003775339184072385
aF8.86225990693173e-143
aF0.0
aF0.0
aF0.0
aF0.0
aF0.0
aF0.0
aF0.0
aF0.004623984037650228
aF6.888593128402601e-231
aF0.0
aF3.1075563950900474e-105
aF1.1680105235574825e-275
aF0.0
aF0.004623865221799148
aF0.0
aF8.486459613596956e-115
aF3.007069034615301e-182
aF3.6751220119465333e-301
aF0.0
aF0.004623984037650228
aF2.543201814326634e-125
aF0.0
aF0.0
aF0.0
aF0.0
aF0.004458042203892491
aF0.0
aF1.7020870831621344e-101
aF0.0046121007892912565
aF0.004623984037650228
aF2.5630586538572074e-100
aF0.0
aF0.0
aF0.0
aF7.660729379257858e-207
aF0.0
aF2.96412075547161e-98
aF0.0
aF1.3810484954033111e-128
aF5.09023781895183e-197
aF1.606649262430613e-96
aF0.005016946515696699
aF0.0
aF7.744039318321845e-170
aF0.0042932979899697144
aF2.114855308487356e-234
aF0.0
aF0.0
aF1.58066189876419e-259
aF2.6995014742768696e-197
aF0.0
aF0.0
aF0.01849593615060091
aF2.516775299934463e-196
aF0.004623984037650228
aF0.004638961312786612
aF0.0
aF1.9131383800099955e-181
aF0.0
aF0.0
aF0.0
aF0.0
aF0.0
aF0.0
aF0.0
aF0.0
aF3.2651032304731565e-194
aF0.0
aF4.8410887133290897e-203
aF3.380507619288657e-195
aF0.004623984037650228
aF0.0
aF3.1404853962951605e-186
aF0.004633331457721575
aF9.32587277e-315
aF0.0
aF0.0
aF1.0183660742682263e-194
aF0.0
aF0.0
aF0.0
aF0.0
aF2.353823013855898e-101
aF0.0
aF0.0
aF0.0
aF2.067912233581529e-197
aF0.004572653850678533
aF2.294469965569528e-103
aF7.325739194083701e-118
aF0.0
aF2.1260883715081647e-273
aF0.0
aF0.0
aF7.32900786709139e-27
aF0.0
aF0.0
aF0.004623984037650228
aF0.0
aF0.00462398403770821
aF2.2332799628130243e-136
aF1.0990134896280089e-131
aF0.004623984037650228
aF2.306362599720265e-109
aF0.0
aF2.919441065862934e-74
aF7.20325943060437e-179
aF0.0
aF0.0
aF0.0
aF0.0
aF2.7250276647087024e-115
aF0.0
aF0.0
aF2.834603559133289e-252
aF2.5084923461985244e-103
aF0.0
aF0.0
aF0.0
aF0.0
aF0.0
aF0.0
aF0.0
aF8.108263298423972e-151
aF0.0
aF6.525645259404164e-87
aF0.0
aF0.0
aF4.720763262188738e-156
aF0.0
aF0.0
aF0.0
aF3.2562904725702204e-234
aF0.0
aF5.172184617031251e-215
aF0.009247968075300456
aF0.004623984037650228
aF2.3557045751205978e-178
aF0.0
aF0.0
aF0.004623984037650228
aF0.0
aF7.381937717267785e-196
aF0.0
aF0.0
aF5.329155081205757e-85
aF9.231200509043933e-152
aF0.0
aF1.5551730763574439e-102
aF0.0
aF3.497083520609812e-284
aF2.7186461755541746e-194
aF0.014229077343492486
aF4.853967029346355e-201
aF0.0
aF0.0
aF0.0
aF0.0
aF0.004623984037643896
aF0.0
aF0.0
aF0.0
aF4.973515202316318e-196
aF0.004623984037650228
aF0.0
aF0.0
aF5.449844173947286e-172
aF0.0
aF0.0
aF0.0
aF0.0
aF1.2444527855056072e-284
aF1.4819228622273087e-243
aF0.0
aF5.471419236241641e-153
aF9.692161034499464e-06
aF0.0
aF0.0
aF0.0
aF0.004623984037650228
aF0.0
aF0.0
aF1.5817580654304072e-197
aF0.0
aF0.0
aF0.0
aF3.5158469583883065e-166
aF0.0
aF0.0
aF1.193235546115641e-282
aF0.0
aF0.0
aF2.249212064951811e-79
aF1.858441825449079e-235
aF0.0
aF0.0
aF4.769412210956015e-187
aF5.1840298472491975e-164
aF0.004623984037650228
aF1.7844398662579983e-265
aF0.0
aF0.004701628594339647
aF0.004592575516752619
aF0.0
aF0.0
aF0.0
aF0.0
aF0.0
aF0.0
aF0.0
aF0.0
aF0.0
aF0.0
aF0.004623984037650228
aF0.0
aF0.004623984037650228
aF0.0
aF0.0
aF9.003817137437438e-203
aF0.0
aF0.004623984037650228
aF0.0
aF0.0
aF0.0
aF0.0
aF0.0
aF0.004623984037650228
aF1.6233635164955208e-125
aF0.0
aF7.98694201414124e-179
aF0.004623984037650228
aF0.0
aF2.84249986131e-312
aF0.0046709562625462525
aF0.0
aF0.0
aF5.248289465305974e-268
aF0.005033400517613489
aF0.0
aF9.368350741613693e-180
aF0.004623984037650228
aF0.0
aF0.004623984037650228
aF0.0
aF0.0
aF1.7788010802066267e-182
aF0.0
aF2.6154173190378943e-195
aF2.2446975641341215e-128
aF3.8279922021748066e-90
aF0.0
aF0.0
aF0.004623984037650228
aF0.0
aF0.0
aF0.0
aF0.0
aF0.0
aF0.0
aF1.4347842394290088e-275
aF0.0
aF0.0
aF0.0
aF0.0
aF0.0
aF1.5638561420113077e-194
aF0.0
aF1.6894667032074336e-280
aF0.0
aF0.0
aF0.0
aF0.0
aF0.0
aF0.0
aF0.0
aF0.0
aF0.0
aF0.0
aF0.0
aF0.0
aF0.0
aF0.0
aF0.0
aF9.972650169588497e-194
aF0.0
aF0.004654006507881955
aF0.0
aF0.0
aF1.5589565421793737e-178
aF3.232922611837391e-213
aF4.8274062866257754e-91
aF0.0
aF0.0
aF1.0869797284791305e-83
aF0.0
aF0.0
aF0.0
aF0.0
aF0.0
aF0.0
aF0.0
aF1.2901759095721591e-132
aF0.0
aF7.466310782327961e-170
aF0.0
aF0.0
aF3.686322303982938e-130
aF0.0
aF0.0
aF0.004623984037650228
aF3.551043135921146e-80
aF0.0
aF0.0
aF0.0
aF0.0
aF6.275186664066317e-105
aF0.004623984037650228
aF0.0
aF0.0
aF0.0
aF2.5538703739455262e-170
aF0.0
aF0.004623984037650228
aF0.0
aF0.004623984037650228
aF0.0
aF0.0
aF0.0
aF0.0
aF0.0
aF0.0
aF0.004623984037650228
aF6.182178842175321e-156
aF0.0
aF0.0
aF0.0
aF0.004623984037650228
aF9.730809134195115e-196
aF0.004623984037650228
aF0.0
aF0.0
aF0.0
aF2.763029950161775e-103
aF0.0
aF0.0
aF0.0
aF3.7278673034044765e-225
aF0.0
aF0.0
aF0.0
aF0.0
aF0.0
aF0.004623984037650228
aF0.0
aF1.0483574231590341e-210
aF0.0
aF0.004623984037650228
aF0.0
aF0.0
aF2.2911851904391024e-162
aF0.004623984037650228
aF0.0
aF0.0
aF1.1774401481457926e-189
aF0.0
aF0.0
aF0.0
aF0.0
aF3.559463919626536e-308
aF0.004623984037650228
aF0.0
aF0.0
aF0.0
aF2.5637820670244035e-181
aF0.004623984037650228
aF6.91676188684281e-293
aF0.0
aF0.0
aF0.0
aF0.0
aF8.61631976479801e-08
aF0.0
aF0.0
aF0.004623984037650228
aF0.0
aF0.0
aF0.004623984037650228
aF0.0
aF0.0
aF0.0
aF0.0
aF0.0
aF0.0
aF0.004623984037650228
aF3.9270733699799312e-227
aF0.0
aF0.0
aF0.0046239882774959645
aF0.0
aF0.0
aF0.0
aF0.0
aF0.0
aF0.0
aF0.0
aF0.0
aF0.0
aF0.0
aF0.004623984037650228
aF0.0
aF0.0
aF3.5444079462693015e-300
aF0.0
aF0.0
aF0.0
aF0.004623984037650228
aF0.0
aF1.2472152945044962e-72
aF0.0
aF0.0
aF0.0
aF4.496900876862561e-124
aF0.0
aF0.0
aF0.0
aF0.0
aF0.0
aF0.0
aF0.0
aF0.0
aF0.004623984037650228
aF5.294211002287612e-87
aF0.0
aF5.507052757807983e-75
aF0.004623984037650228
aF0.0
aF0.0
aF1.5735664061882222e-161
aF0.0
aF0.0
aF0.0
aF0.0
aF0.0
aF2.6092218e-316
aF8.846931416274114e-42
aF2.8212700016679343e-264
aF0.0
aF0.0
aF0.004623984037650228
aF2.5791003902983227e-277
aF0.0
aF0.004623984037650228
aF0.0
aF0.0
aF0.0
aF6.57410797906727e-229
aF0.0
aF0.0
aF0.0
aF0.0
aF0.0
aF0.0
aF0.0
aF0.0
aF0.0
aF0.0
aF0.0
aF0.004623984037650228
aF0.004623984037650228
aF0.0
aF0.0
aF0.0
aF4.023494445194375e-192
aF0.0
aF0.0
aa(lp27
F7.415781887629888e-47
aF0.0
aF0.06294014832659556
aF0.0
aF0.0
aF8.340891788422714e-46
aF2.367602773610961e-17
aF5.859785586117811e-33
aF0.021733246909426965
aF6.989171304684926e-06
aF0.0
aF1.6063514297128686e-25
aF0.0
aF0.0
aF0.0
aF9.289936011846589e-69
aF4.414055464062423e-18
aF0.011544250272422035
aF1.8501349109076987e-97
aF0.022347460507926374
aF0.0
aF0.0055603212860478425
aF0.0
aF0.0
aF1.2655567569388774e-38
aF0.0
aF0.0
aF0.0
aF0.08999146229544071
aF2.25767818367679e-177
aF2.3817895170544307e-152
aF2.342043612726828e-287
aF1.097411723526063e-145
aF3.517360559447069e-15
aF0.007916643462200779
aF1.9701256939829518e-29
aF0.0
aF0.0
aF1.2691759935203218e-45
aF0.0
aF7.541578328542729e-100
aF0.0
aF0.0
aF7.794867480426755e-292
aF0.005560321286045225
aF0.0
aF0.0
aF2.1157522414993054e-153
aF2.0353582543367923e-16
aF4.108834473108114e-84
aF0.0
aF0.0
aF0.030393364297253762
aF0.005000598624546336
aF0.0
aF0.0
aF0.0
aF0.007325464563572507
aF0.0
aF0.0
aF1.3789439945547015e-73
aF0.005560321286045201
aF6.841593469246976e-276
aF0.005560321286043622
aF0.0
aF0.060662017470196325
aF0.0
aF0.0
aF0.0
aF0.007315905412568952
aF0.0
aF1.5658340255142974e-58
aF3.3090466305553208e-158
aF0.012716226527488285
aF0.0
aF0.0
aF7.711267147422123e-22
aF4.028277919253713e-174
aF2.866134631558839e-23
aF0.0
aF7.878522484489877e-98
aF0.0
aF0.010610741475085025
aF0.0
aF2.364072617760303e-71
aF3.0255490791954173e-251
aF0.0
aF0.0
aF0.0
aF0.0
aF0.01112064257209045
aF0.0
aF7.362820413523276e-61
aF0.0
aF1.114666071211361e-210
aF0.0
aF0.0
aF0.07459678019182044
aF1.6007012015457934e-56
aF2.5628690409076917e-57
aF1.6893100156844255e-54
aF0.0
aF0.0
aF0.0
aF0.0
aF0.005560321286045053
aF0.0
aF0.010744648243748952
aF7.08187200251379e-22
aF0.005560321286045225
aF1.9884976601892594e-36
aF0.0
aF0.0
aF0.0
aF0.006706298223780305
aF3.0318708608616697e-142
aF0.005583636480877536
aF0.0
aF0.0
aF1.3867450651057628e-55
aF0.0
aF0.0
aF2.1970675125710664e-148
aF0.0
aF0.0
aF0.0
aF1.9931667886709534e-39
aF7.318075118167078e-163
aF0.00835021273323717
aF0.0
aF0.0
aF1.365662195487346e-62
aF0.0
aF0.0
aF4.360969702545468e-22
aF0.0
aF1.9014022985715638e-35
aF0.004568292567075271
aF1.4297102531191486e-12
aF5.499398997244359e-187
aF0.0
aF4.764418739794771e-100
aF3.680299918672437e-232
aF0.032334014470105275
aF0.0
aF9.924165179032547e-19
aF0.0
aF1.0709171345956742e-248
aF2.927034472651062e-83
aF0.0
aF0.0
aF0.0
aF1.0141996269277968e-54
aF0.005560321286045225
aF2.4595896357816004e-176
aF0.0
aF0.030644921502154275
aF0.0
aF0.0
aF2.3703710772293696e-05
aF0.0
aF6.502386096233488e-08
aF1.4910317405624515e-17
aF4.187608795251102e-204
aF1.242755679599034e-193
aF0.0
aF0.0
aF0.0
aF0.0
aF0.0
aF1.0696091008768806e-120
aF0.0
aF8.236778193314271e-208
aF2.5685848740513647e-157
aF0.0
aF2.2553341494077333e-179
aF6.162477061167325e-12
aF4.589256724591936e-37
aF2.0809604845852083e-211
aF2.166884045417824e-147
aF0.0
aF0.0
aF0.005559718573117884
aF0.010871055073538435
aF9.4836191283306e-133
aF4.3981313713406656e-103
aF0.0
aF6.586250494860968e-21
aF0.0
aF5.935816350107195e-93
aF4.08139532904757e-228
aF0.0
aF2.5969109541210516e-28
aF1.6935931488468232e-21
aF0.0
aF1.6365877963571894e-09
aF0.006056279612867845
aF4.327512669426e-311
aF1.1518164449226082e-152
aF0.0
aF0.0
aF0.0
aF0.0
aF1.958781863472692e-23
aF0.008426970095993217
aF2.2742521550225068e-94
aF1.0901549152343338e-189
aF0.0
aF0.0
aF0.0
aF0.005560321286045225
aF0.0
aF0.0
aF0.0
aF0.03739707964204912
aF0.0
aF0.0
aF0.0
aF0.0
aF0.0
aF0.0
aF0.001608329711612201
aF0.0
aF0.0
aF0.005560321286045199
aF0.0
aF1.0457694885357412e-229
aF0.00552534990019144
aF1.0775422993585817e-07
aF0.0
aF0.0
aF0.0
aF0.025343822566701053
aF0.007227341135641728
aF0.0
aF0.0
aF0.0
aF0.0
aF0.0
aF8.274712664421617e-68
aF8.993090709838062e-20
aF0.0
aF0.011051528350964047
aF0.0
aF0.0
aF6.888431531927307e-94
aF0.0
aF0.0
aF0.0
aF3.2270472040468025e-242
aF4.3683439718813827e-47
aF0.0
aF0.0
aF0.0
aF0.0
aF0.0
aF0.0
aF0.0
aF5.527953913137608e-97
aF0.0
aF0.0
aF0.0
aF0.0
aF0.0
aF9.863448510224573e-43
aF0.0
aF0.005604895389113779
aF0.0
aF0.0
aF1.8029903314246853e-56
aF0.005560321286045225
aF4.841842058880911e-168
aF0.0
aF0.0
aF0.0
aF0.0
aF0.005560321286042745
aF7.543562158623104e-60
aF0.0
aF0.0
aF0.0
aF0.0
aF0.0
aF0.005560321286045225
aF0.0
aF0.0
aF5.642259661207208e-109
aF3.118242588189632e-114
aF0.005560321286045225
aF0.0
aF0.0
aF0.00556032128604522
aF4.1391221046062e-137
aF2.5380249345695487e-97
aF0.0
aF0.0
aF0.0
aF0.0
aF0.0
aF0.0
aF0.0
aF0.005560321286045225
aF0.0
aF3.475518148183053e-146
aF0.0
aF0.0
aF0.011120642568460154
aF1.987826182584259e-20
aF1.8505862095693702e-94
aF2.048659019181294e-37
aF0.018636074252330586
aF7.793481558923555e-166
aF0.0
aF0.0
aF0.0
aF0.0
aF0.0
aF1.0618289302224461e-128
aF2.56800387062902e-143
aF0.0
aF0.0
aF0.0
aF0.0
aF5.24773389764554e-71
aF7.8467270463374e-311
aF2.0614777507976293e-125
aF1.460902847196288e-44
aF4.443505725387929e-97
aF0.005418792612537897
aF0.0
aF0.016680963858135677
aF0.0
aF0.0
aF2.098091793463964e-58
aF3.4258755912954414e-23
aF0.0
aF4.092617470600966e-26
aF0.0
aF3.3688885450296853e-39
aF0.0
aF0.0
aF5.476053925077642e-56
aF4.719168394427848e-156
aF0.0
aF0.0
aF0.0
aF4.0413102146446245e-136
aF0.0
aF0.0
aF1.7094495251202992e-91
aF0.0
aF2.679397044199917e-232
aF0.0
aF3.8415895701596803e-10
aF0.0
aF0.0
aF0.0
aF0.0
aF0.0
aF5.619975135905735e-204
aF6.423389163707001e-275
aF0.0
aF4.7402814967842216e-169
aF0.0
aF0.0
aF0.0
aF4.6903240862464367e-26
aF0.0
aF0.005560321286045225
aF2.7119742998934895e-10
aF0.0
aF0.0
aF0.0
aF0.0
aF0.011136983320820802
aF5.546367356728315e-158
aF0.0
aF0.0
aF2.5483982643541053e-304
aF0.0
aF0.0
aF0.0
aF7.717643105501144e-38
aF0.0
aF0.0
aF0.0
aF0.0
aF0.0
aF0.0
aF0.0
aF0.0
aF0.0
aF0.0
aF0.0
aF0.0
aF0.0
aF0.0
aF0.0
aF0.005560321286045407
aF0.005549081052867705
aF0.0
aF0.0
aF0.0
aF0.0
aF0.0
aF0.0
aF0.0
aF0.005560321286045225
aF0.0
aF0.0
aF2.0161498386324305e-74
aF0.0
aF1.0492496789817458e-302
aF0.0
aF0.0
aF6.391514381116212e-05
aF0.0
aF0.0
aF0.0
aF0.0
aF0.0
aF0.005560321286045225
aF0.01293155949579912
aF0.0
aF0.0
aF0.0
aF1.217631777571634e-25
aF0.0
aF0.0
aF0.0
aF1.875997498119788e-106
aF0.0
aF0.0
aF0.0
aF0.0
aF0.0
aF0.0
aF7.237012270582852e-70
aF0.0
aF0.0
aF1.1361433833095328e-25
aF0.0
aF0.0
aF0.005567830514831147
aF0.0
aF0.005560321286045225
aF0.0
aF0.0
aF8.787970643592644e-37
aF5.94593407918593e-247
aF0.0
aF0.005560321286044799
aF1.1016295978117138e-95
aF0.0
aF1.3482464710501957e-197
aF7.618594202686682e-226
aF0.0
aF0.0
aF0.0
aF1.8414005995932636e-45
aF0.0
aF0.0
aF0.0
aF4.721736337451539e-196
aF0.0
aF0.0
aF0.0
aF1.3728471814354182e-291
aF1.234654721697897e-85
aF0.0
aF0.0
aF3.5914779873161946e-92
aF0.0
aF0.005560321286045225
aF0.0
aF0.0
aF0.0
aF0.0
aF0.0
aF0.0
aF0.0
aF0.0
aF0.005560321286045225
aF0.0
aF0.0
aF6.483450996418772e-22
aF0.0
aF0.0
aF0.0
aF0.0
aF0.005560321286045225
aF8.02687694461961e-202
aF1.40339e-318
aF5.607076257517978e-61
aF0.0
aF0.0
aF0.0
aF0.0
aF7.015458315774049e-24
aF0.005560321286045225
aF0.005373614443372085
aF1.9990853658527052e-219
aF1.600763340002974e-141
aF0.0
aF0.0
aF0.0
aF0.0
aF0.0
aF0.0
aF7.857972250874847e-231
aF0.0
aF4.798723947265329e-27
aF2.2661044850418243e-288
aF0.0
aF0.0
aF0.005560321286045225
aF0.0
aF0.0
aF0.0
aF0.0
aF2.3861673585449308e-85
aF0.0
aF0.0
aF8.952621939795923e-121
aF0.0
aF1.0260285442470922e-255
aF1.284317756533003e-230
aF0.0
aF0.0
aF0.005560321286045225
aF1.6026659131561573e-114
aF0.0
aF0.0
aF0.005560321287508029
aF0.0
aF8.168144162947664e-178
aF0.011120642567134664
aF1.2826262847820357e-158
aF0.0
aF0.0
aF0.0
aF0.0
aF0.0
aF0.0
aF0.0
aF0.0
aF0.0
aF0.0
aF0.0
aF0.0
aF0.0
aF3.5185621851678666e-249
aF0.0
aF0.0
aF2.628130304932058e-11
aF0.0
aF0.0
aF2.115403378433818e-55
aF8.994354051482138e-08
aF0.0
aF0.0
aF0.0
aF1.5128160216759891e-65
aF1.2529951481325703e-21
aF0.0
aF0.007226252932312149
aF0.0
aF0.0
aF0.0
aF0.0
aF1.6721641217105923e-21
aF2.794175573157792e-223
aF0.0
aF0.0
aF4.3965684296117786e-92
aF0.0
aF0.0
aF0.0
aF0.0
aF0.0
aF0.0
aF5.442989447346878e-07
aF6.931021586386371e-157
aF0.0
aF0.0
aF0.0
aF0.0
aF0.0
aF0.005560321286045225
aF0.0
aF0.0
aF0.0
aF0.0
aF2.289340110558681e-190
aF4.239228902896008e-263
aF0.0
aF0.0
aF0.0
aF1.4977756104830173e-240
aF0.0
aF0.0
aF0.0
aF0.0
aF4.968428071085683e-138
aF6.2260242167700774e-173
aF0.0
aF0.0
aF0.0
aF0.0
aF0.0
aF0.0
aF2.468434647110312e-150
aF0.0
aF0.0
aF0.00690986125962417
aF0.005560321286045221
aF0.0
aF0.0
aF0.0
aF1.6784651026945418e-22
aF0.0
aF0.0
aF1.9084762415093875e-68
aF7.30931370254374e-309
aF0.0
aF0.0
aF0.0
aF0.0
aF3.518827394062204e-18
aF0.0
aF0.0
aF0.0
aF0.0
aF4.033072369504563e-43
aF1.0398161975724518e-236
aF0.0
aF0.0
aF0.0
aF0.0
aF0.0
aF0.0
aF6.829169540985701e-140
aF0.0
aF0.0
aF0.0
aF0.0
aF0.0
aF0.0
aF2.1814851313e-313
aF0.01112064257209048
aF0.0
aF0.0
aF0.0
aF0.0
aF0.0
aF0.0
aF0.0
aF0.0
aF0.0
aF0.0
aF0.0
aF0.0
aF7.587057077297126e-113
aF0.0
aF0.0
aF0.0
aF3.5713790355370894e-111
aF0.0
aF0.0
aF0.0
aF0.005560321286045225
aF0.0
aF5.558614021807805e-86
aF0.0
aF0.0
aF0.0
aF0.0
aF0.0
aF0.0
aF0.0
aF4.086048811316107e-204
aF0.0
aF0.0
aF0.0
aF0.005560321286045217
aF6.490228696333966e-120
aF0.0
aF0.0
aF0.0
aF0.0
aF0.0
aF0.0
aF0.0
aF0.0
aF0.0
aF0.0
aF0.0
aF3.7647221542859214e-23
aF0.0
aF0.0
aF0.0
aF0.0
aF3.5076740470945726e-146
aF0.0
aF0.0
aF0.0
aF8.512481377643451e-08
aF0.0
aF3.6097458478142095e-248
aF0.0
aF0.0
aF2.4095850498203908e-104
aF0.0
aF0.0
aF0.0
aF0.0
aF0.0
aF0.0
aF0.0
aF0.0
aF8.412047978575542e-18
aF0.0
aF1.7885914000695974e-99
aF0.0
aF0.0
aF2.5702718398634e-277
aF1.2407652223330875e-169
aF1.70561261253059e-20
aF0.0
aF0.005560321286045189
aF3.642263063537542e-243
aF9.11784613042569e-70
aF0.0
aF1.1490652219204882e-90
aF0.0
aF0.0
aF3.478142056007566e-269
aF4.4645138782374905e-264
aF0.0
aF0.005560321286045225
aF0.0
aF0.0
aF9.915417947636988e-225
aF5.681975948985372e-188
aF2.7897097916014076e-80
aF3.713243596273577e-20
aF0.0
aF0.0
aF0.0
aF0.0
aF0.0
aF4.472266587052757e-100
aF0.005560321286045225
aF0.0
aF0.0
aF0.0
aF0.0
aF0.005560321286045172
aF7.562750534629376e-210
aF1.0789313582126988e-97
aF0.0
aF6.989442475039348e-91
aF0.0
aF0.0
aF0.0
aF0.0
aF5.5906431129980145e-22
aF2.975114842124156e-208
aF0.0
aF1.4872045762240201e-108
aF0.0
aF1.59620181309171e-206
aF0.0
aF0.0
aF0.0
aF0.0
aF0.0
aF0.0
aF0.0
aF0.0
aF0.0
aF4.443149883059277e-105
aF0.0
aF0.0
aF0.0
aF0.0
aF0.005560321286045225
aF0.0
aF2.431706585400205e-118
aF0.0
aF0.005560321286045225
aF0.0
aF0.0
aF0.0
aF0.0
aF0.0
aF0.0
aF9.41846782832905e-53
aF0.0
aF0.0
aF0.0
aa(lp28
F0.029349811491004796
aF0.005725868646951491
aF3.0122463351945595e-46
aF0.0
aF1.4429177726552526e-77
aF0.0
aF0.0
aF6.096231017563796e-59
aF1.7599632079680074e-96
aF6.815048465724357e-86
aF0.0
aF0.005835070709164664
aF0.005725868646951491
aF0.0
aF4.410679260003855e-134
aF0.0061503841517088174
aF0.0
aF2.1241432284498797e-119
aF3.763795845346187e-126
aF1.0243265859560398e-50
aF0.0
aF4.69230202616042e-110
aF0.011499275707283076
aF0.0
aF0.005756270794223455
aF0.005725868646951491
aF0.0
aF0.0
aF5.1967299044541114e-71
aF0.0
aF0.0
aF0.0
aF0.0
aF0.01086653792075013
aF4.3805614908717923e-66
aF0.013867258808130471
aF0.005725868646951491
aF0.0
aF0.024350540185334384
aF0.0
aF2.8103074297439686e-98
aF0.0
aF0.028607513553263828
aF0.0
aF0.0
aF0.0
aF0.0
aF0.0
aF0.0
aF1.1246658693104548e-88
aF0.0
aF0.0
aF6.640836587556662e-32
aF2.3292816725735722e-287
aF0.0
aF0.0
aF0.0023624643820649867
aF0.02862668986001694
aF0.0
aF0.005725868646951491
aF2.6318972205438004e-161
aF0.0
aF9.17134658069096e-111
aF0.0
aF1.0585209416599745e-161
aF4.748296535460524e-111
aF0.0
aF0.0
aF0.0
aF9.474225020374643e-119
aF0.0
aF0.0
aF2.4807086883806883e-216
aF1.3943648489727632e-98
aF0.0
aF0.010936802839304868
aF4.935878350902174e-33
aF1.9963158997611745e-208
aF0.0
aF0.0
aF4.684190064480284e-223
aF4.005235775030666e-133
aF0.0
aF0.0
aF4.271358547528901e-160
aF0.0
aF0.0
aF0.0
aF0.011451737293902982
aF0.0
aF0.0
aF0.0
aF0.005942602731062354
aF6.989275707259069e-192
aF0.0
aF0.0
aF0.0
aF0.011556711090806646
aF5.473290328317556e-120
aF0.0
aF5.67466410044507e-67
aF0.0
aF0.0
aF0.0
aF0.0
aF0.028629343234757507
aF0.0
aF2.4382224529610345e-102
aF5.769151451161738e-127
aF0.0
aF0.022049446740004253
aF3.8131045761173723e-125
aF0.0
aF0.0
aF9.271650360252953e-206
aF0.0
aF0.0
aF0.0
aF0.0
aF5.247432319190088e-165
aF0.0
aF0.0
aF1.3692108160040592e-243
aF2.3828733889604194e-175
aF0.005725868646951491
aF0.0
aF0.0
aF0.0
aF5.280493968995478e-125
aF4.383105032369169e-163
aF3.461410648473213e-94
aF2.00183614761073e-66
aF0.005725868646951491
aF0.0
aF1.5985719339593368e-143
aF0.017992784378440704
aF1.2752347747608635e-67
aF0.015633438377733427
aF0.0
aF0.005725868646951491
aF0.0
aF7.466202433453624e-52
aF4.1765794420400206e-130
aF0.0
aF0.0
aF5.73343974182679e-268
aF0.005725868646886961
aF0.005723773928036873
aF0.0
aF0.0
aF0.0
aF0.0
aF6.63709529770188e-197
aF0.0
aF3.0122904833515418e-118
aF0.005725868646951491
aF2.331354739491887e-112
aF2.838989943941382e-210
aF0.0
aF2.8067875377291825e-89
aF0.0
aF1.4973824831140598e-168
aF2.0249588687892225e-161
aF0.0
aF0.0
aF0.0
aF0.0
aF0.0
aF0.0
aF0.0
aF2.2481933599557003e-92
aF0.0
aF0.022903474587805964
aF0.017177605940854473
aF0.0
aF0.005949961819401705
aF8.172440039068547e-94
aF1.5681743956229475e-235
aF0.0
aF1.713866144575925e-126
aF0.0
aF8.54216292558939e-111
aF0.035204246252328986
aF6.389837219190215e-39
aF0.0
aF0.005676955245041812
aF0.022903474587805964
aF3.414695122453813e-98
aF0.0
aF0.0
aF0.0
aF0.0
aF6.162926304057604e-71
aF0.0
aF0.0
aF0.0
aF7.419846252286278e-118
aF1.5393487417426587e-19
aF0.0
aF0.0
aF0.0
aF3.4520566281510573e-125
aF5.396335312655398e-57
aF1.5328150652533426e-93
aF0.020820406833689464
aF5.925373978593228e-107
aF1.7382123677109923e-44
aF1.8187107001388092e-71
aF0.0
aF0.0
aF2.196476193497487e-282
aF1.4961356862031292e-122
aF0.0
aF0.0
aF0.0
aF4.013370309475419e-224
aF0.0
aF0.005725868646951406
aF0.0
aF7.436500147048168e-24
aF7.028891453985097e-118
aF0.0
aF0.0
aF0.0
aF0.0
aF0.0
aF0.02313192381848583
aF7.011897062853429e-159
aF0.010504313770497736
aF0.0
aF0.0
aF0.0
aF0.0
aF0.0
aF4.131183588027833e-305
aF0.0
aF6.889546067076289e-106
aF5.53318361559359e-98
aF4.766830726419557e-173
aF1.2003388937208973e-94
aF0.0
aF0.005725868646951491
aF0.005516036203834539
aF1.5044657277200066e-100
aF0.0
aF5.713869484174315e-259
aF2.227890078815549e-221
aF0.0
aF0.0
aF0.0
aF0.005723423644263011
aF0.0
aF0.0
aF2.5812830562323253e-239
aF2.496172562835416e-224
aF0.0
aF0.0
aF0.0
aF0.0
aF0.005725868646951491
aF0.0
aF2.881820671974242e-153
aF2.606341458486408e-33
aF0.0
aF4.2862911131427345e-105
aF0.0
aF0.01717760594085451
aF0.0
aF0.0
aF0.0
aF0.0
aF0.0
aF0.0
aF6.711899593459268e-123
aF0.0
aF0.0
aF9.450663212015776e-133
aF0.0
aF0.0
aF6.87061641281596e-126
aF0.0
aF0.0
aF0.0
aF0.0
aF0.0
aF0.0
aF0.0
aF0.0
aF0.0
aF0.0
aF3.439062333575523e-131
aF0.0
aF0.0
aF9.724919572262653e-140
aF0.0
aF0.0
aF0.0
aF0.0
aF0.0
aF0.0
aF0.0
aF0.0
aF0.0
aF0.01145173729388753
aF0.0
aF7.840122594250313e-174
aF0.005725868646951518
aF6.023685144876749e-147
aF0.0
aF0.0
aF0.03476310034131238
aF3.859394627e-315
aF0.005725868646951491
aF0.0
aF0.0
aF0.0
aF0.0
aF0.01145173729390321
aF0.0
aF0.0
aF0.0
aF0.0
aF0.0
aF7.741576421258798e-47
aF0.0
aF0.0
aF1.0036569216046606e-162
aF0.0
aF0.0
aF0.0
aF0.0
aF0.005725868646951491
aF2.046102949068805e-36
aF0.0
aF0.0
aF0.005725868646951491
aF6.889550736670066e-82
aF0.005725868646951491
aF6.047981599817839e-120
aF0.0
aF0.0
aF5.850180185674764e-49
aF0.0
aF0.0
aF0.0
aF0.0
aF0.0
aF0.0
aF0.0
aF0.0
aF0.0
aF0.005931354032583122
aF0.0
aF0.0057258686466803285
aF0.0
aF0.0
aF4.05385140162703e-124
aF0.0
aF0.0
aF1.3244561478379009e-297
aF0.0
aF0.0
aF3.672213578101711e-153
aF0.0
aF0.0
aF8.628153708568241e-126
aF0.0
aF0.00523926412694145
aF0.0
aF0.0
aF7.31213009427916e-100
aF5.976152454787748e-138
aF0.0
aF0.0
aF3.1269679221766386e-198
aF8.426686744921258e-127
aF0.0
aF0.0
aF0.0
aF3.703418787143797e-125
aF0.0
aF4.303847963925725e-100
aF0.0
aF0.005725868646951491
aF0.0
aF0.0
aF0.0
aF0.0
aF0.005725868646951491
aF0.0
aF0.0
aF0.0
aF8.948231020527927e-127
aF0.0
aF0.0
aF2.2555915437089952e-124
aF0.0
aF0.0
aF1.75404981990363e-124
aF0.0
aF8.609131356004563e-144
aF5.678254552659432e-146
aF0.0
aF1.3829277845695196e-124
aF0.0
aF0.0
aF0.0
aF0.0
aF0.005725868646949898
aF0.0
aF0.0
aF0.0
aF6.861099520228773e-127
aF0.0
aF0.017177352938905606
aF9.74724440397684e-35
aF0.0
aF0.0058950891677412975
aF0.0
aF0.0
aF0.022903474587805964
aF0.0
aF0.0
aF0.0
aF0.0
aF0.0
aF1.1600633567899598e-113
aF6.846306266053216e-99
aF0.0
aF0.0
aF0.0
aF0.0
aF0.0
aF0.0
aF0.0
aF2.3386089049183868e-268
aF5.673221752873804e-135
aF0.0
aF0.0
aF0.0
aF0.0
aF0.0057258686469513235
aF0.0
aF0.01717760434429609
aF0.0
aF0.0
aF0.0
aF0.005725868646951491
aF0.0
aF0.01145173729390299
aF0.011451737293902982
aF0.0
aF0.0
aF0.0
aF1.4724756603749902e-44
aF0.0
aF0.0
aF0.0
aF5.103656605712157e-115
aF0.0
aF2.562687662933419e-141
aF0.0
aF1.3054195115353859e-171
aF0.011451737293902982
aF0.0
aF0.0
aF0.0
aF0.0
aF9.610700761995409e-58
aF2.638887027074022e-17
aF0.0
aF0.0
aF0.005725868646951491
aF0.0
aF0.0057258686468843155
aF0.0
aF1.2202721160204651e-141
aF4.637180640513085e-122
aF1.1782260952137602e-142
aF0.005725868646951491
aF0.0
aF0.0
aF0.0
aF0.0
aF0.0
aF0.0
aF0.0
aF0.0
aF1.1560730373778466e-125
aF0.0
aF0.0
aF2.5985628462958274e-51
aF0.0
aF0.0
aF0.0
aF0.0
aF0.0
aF0.0
aF8.128723901864011e-188
aF0.0
aF0.0
aF0.0
aF0.0
aF0.0
aF0.0
aF0.0
aF0.0
aF0.0
aF0.005725868646951491
aF0.0
aF0.0
aF0.0
aF9.941420045693397e-126
aF0.0
aF0.005725868646951491
aF0.0
aF3.3352681109450346e-111
aF0.005725868646951491
aF0.0
aF0.0
aF0.0
aF0.0
aF1.6419342242866496e-120
aF2.3680639024140486e-97
aF0.0
aF0.0
aF0.0
aF0.0
aF0.0
aF0.0
aF0.0
aF0.0
aF0.0
aF0.0
aF0.0
aF0.0
aF0.0
aF1.7255462225669273e-308
aF0.0
aF0.0
aF0.0
aF0.0
aF0.0
aF0.0
aF2.2228119453638655e-108
aF0.0
aF0.0
aF0.0
aF0.0
aF2.0892458124359488e-239
aF0.0
aF0.0
aF0.0
aF0.005725845586637047
aF0.0
aF2.9518825095729855e-143
aF0.0
aF0.0
aF0.0
aF0.0
aF0.0
aF0.0
aF0.0
aF7.147583609508772e-269
aF0.005725868646951491
aF0.022903474587805964
aF0.0
aF0.0
aF0.0
aF0.005725868646951491
aF0.0
aF0.0
aF0.0
aF2.7986055251931396e-126
aF0.0
aF0.005725868646951491
aF0.0
aF0.0
aF0.0
aF0.0
aF0.0
aF0.0
aF0.0
aF0.0
aF0.0
aF6.094729561341309e-132
aF0.0
aF0.0
aF0.0
aF0.0
aF0.0
aF0.005949960059641636
aF0.0
aF2.2143560279406406e-217
aF0.0
aF0.0
aF0.0
aF0.0
aF0.0
aF0.005725868646951491
aF0.005725868646951491
aF0.0
aF0.011451737293902982
aF0.0
aF0.0
aF0.0
aF0.0
aF0.0
aF0.0
aF0.0
aF0.0
aF3.4197360594021393e-124
aF0.0
aF0.005725868646951491
aF0.0
aF0.0
aF0.0
aF0.0
aF0.0
aF0.0
aF0.0
aF0.0
aF0.0
aF0.0
aF0.0
aF0.0
aF0.0
aF0.0
aF0.0
aF0.005725868646951491
aF0.0
aF0.0
aF0.011451737293902982
aF0.0
aF0.0
aF1.9845142401929268e-175
aF0.0
aF0.0
aF0.0
aF0.0
aF0.0
aF0.0
aF0.0
aF0.0
aF5.2819603256696245e-50
aF1.500960209208722e-131
aF5.2472041708823194e-282
aF7.832876026526846e-233
aF0.0
aF5.882050360121715e-131
aF0.0
aF0.0
aF0.0
aF0.0
aF0.0
aF0.005725868646951491
aF8.454390478116389e-99
aF3.6376328745048245e-57
aF0.0
aF0.0
aF0.0
aF4.190358217898695e-241
aF0.0
aF9.224286642635867e-125
aF0.0
aF0.0
aF0.0
aF0.0
aF0.005725868646946988
aF0.0
aF0.0
aF0.0
aF1.2461102710907455e-175
aF0.0
aF0.0
aF5.424401774004239e-175
aF0.0
aF0.0
aF0.0
aF0.0
aF0.0
aF0.0
aF0.0
aF0.0
aF0.0
aF3.1045923264596395e-95
aF0.0
aF0.0
aF0.0
aF4.313785399286444e-123
aF0.0
aF0.0
aF0.0
aF0.0
aF3.891501727856347e-251
aF0.0
aF0.0
aF0.0
aF0.0
aF0.0
aF0.0
aF0.0
aF0.0
aF0.0
aF0.0
aF0.005725868646951491
aF0.0
aF0.0
aF1.2004202016236406e-308
aF0.0
aF0.0
aF0.0
aF0.0
aF0.0
aF0.0
aF0.0
aF0.0
aF0.0
aF0.0
aF0.0
aF9.52046571388093e-187
aF0.0
aF0.0
aF0.0
aF0.005725868646951491
aF1.417872759770162e-135
aF0.0
aF7.734364316285709e-195
aF0.0
aF0.0
aF0.0
aF0.0
aF0.0
aF1.803958754505858e-211
aF0.0
aF1.420964084372935e-296
aF0.0
aF4.493502979848507e-277
aF0.0
aF0.0
aF0.0
aF0.0
aF0.0
aF2.1358662089217203e-83
aF0.0
aF0.0
aF0.0
aF0.005725868646951491
aF0.005725868646951491
aF0.0
aF1.6136508126258525e-241
aF0.0
aF0.0
aF0.0
aF0.005725868646951491
aF0.0
aF0.0
aF0.0
aF0.0
aF0.0
aF0.0
aF0.0
aF0.0
aF0.005725868646951491
aF0.0
aF0.005725868646951491
aF0.0
aF0.0
aF0.0
aF3.721511268565643e-251
aF0.005725868646951491
aF1.1069420548831768e-197
aF0.0
aF0.0
aF0.0
aF0.0
aF2.00461812495e-313
aF0.0
aF0.0
aF0.0
aF0.0
aF1.2928288678466646e-197
aF0.0
aF0.0
aF2.922881071085781e-112
aF0.0
aF0.0
aF0.005725868646951491
aF0.0
aF0.0
aF0.0
aF9.651583335821171e-51
aF0.0
aF0.0
aF0.0
aF0.0
aF0.0
aF0.0
aF0.005725868646951491
aF0.0
aF0.005725868646951491
aa(lp29
F0.0232396708523682
aF3.4555499142562754e-67
aF6.26459097896109e-34
aF0.0
aF5.63773069494849e-125
aF1.1979029357696672e-117
aF0.030798185095539395
aF0.011857576642519976
aF0.12255143585210673
aF1.033270190934111e-14
aF0.0
aF8.660776540550449e-135
aF0.008499032356560923
aF0.0
aF1.75289290463527e-152
aF1.0819436030142508e-50
aF0.0
aF1.3357445700384857e-80
aF4.599899595659158e-123
aF0.010400857516396463
aF0.0
aF1.5803095861903905e-44
aF0.0
aF2.6756508348204687e-68
aF1.2724407325891719e-85
aF0.0
aF0.0
aF0.0
aF0.02022757538261171
aF0.025368645025098176
aF8.532386406997523e-12
aF0.0
aF1.3294343586793927e-37
aF1.2018680691768448e-40
aF7.137193550818377e-14
aF2.241455119896191e-118
aF0.0
aF0.0
aF1.8766681560328024e-198
aF0.0
aF0.009859510013410509
aF1.0948408525484573e-48
aF4.810506842020004e-128
aF1.655236246751402e-214
aF5.0163168233738514e-55
aF0.0
aF0.0
aF1.583933418962167e-152
aF0.0
aF2.3077875090757473e-113
aF0.0
aF0.025497097069682773
aF4.0006846083139913e-07
aF3.801030041468223e-15
aF0.0
aF0.0
aF5.150636544425991e-192
aF0.004236813146904297
aF0.0
aF2.750533550367658e-226
aF0.010456251440662435
aF3.5475474097077906e-17
aF6.745606962250047e-72
aF0.0
aF4.066493807591355e-178
aF8.126968077059038e-36
aF2.244218689818457e-112
aF0.0
aF0.0
aF0.02484648934984235
aF0.0
aF3.402254521492275e-206
aF1.0454021518448843e-133
aF1.0304605453779075e-74
aF0.0
aF1.1933226930251939e-94
aF0.08607184402865053
aF0.008903005921139994
aF0.008676711093378536
aF0.0
aF1.0065671519408793e-259
aF8.01064069910973e-155
aF6.192617656871609e-62
aF0.0
aF4.5919167534068104e-95
aF0.0
aF0.0
aF0.0
aF0.0
aF0.0
aF4.991130231471962e-41
aF0.0
aF1.3365709851191774e-45
aF0.0
aF5.0568399847080614e-226
aF0.0
aF0.0
aF2.9786253439353617e-49
aF2.2460827509727695e-133
aF0.0
aF0.03510936611907955
aF0.0
aF0.0
aF0.0
aF0.0
aF1.4769601952592836e-16
aF0.0
aF1.3673070673659483e-20
aF0.024604604718559187
aF2.1421445511863144e-226
aF4.8195625482174055e-127
aF8.399214680622724e-46
aF0.0
aF0.0
aF5.798271491524502e-108
aF2.2450136266676715e-299
aF1.8713911318074024e-39
aF0.008499032356560923
aF1.6092587453147898e-139
aF0.01706591928309647
aF0.0
aF0.0
aF8.039990302020461e-168
aF0.0
aF0.0
aF0.0
aF0.008499032356560923
aF1.536005298353272e-223
aF0.019444849819630423
aF0.0
aF8.729619456132549e-117
aF5.072565380434618e-208
aF4.162105772136114e-128
aF0.0
aF1.9054781270872833e-38
aF5.203692879424796e-215
aF7.634020537813406e-19
aF1.725696268520484e-17
aF3.3193992801681365e-58
aF0.0
aF0.02548203773396506
aF2.2953341215850623e-83
aF4.646819203204408e-120
aF0.033141096170018126
aF0.0
aF7.491773607602423e-227
aF4.840321095850662e-288
aF7.620563492844215e-168
aF0.0
aF0.0
aF0.0
aF0.0
aF2.0117526955788068e-48
aF2.4795491377860637e-55
aF2.2465589907418388e-27
aF4.322551742424475e-242
aF1.4526199926192652e-12
aF0.0
aF0.0
aF2.295134704906832e-19
aF0.0
aF6.73981192938956e-86
aF1.1282112228296974e-85
aF0.0
aF3.2047321586267122e-105
aF8.03133048102586e-87
aF0.0
aF0.0
aF3.5680175195815666e-18
aF0.0
aF1.0556947842355296e-167
aF6.94789217604663e-11
aF8.279750263119167e-58
aF2.2417990431535363e-71
aF0.008499032356560923
aF1.2967571916984422e-44
aF0.021284074293631737
aF0.0
aF1.835437147183536e-120
aF6.928834283372084e-47
aF0.0
aF6.2864314017923765e-136
aF1.984442577715049e-34
aF0.011152315520810682
aF4.7602590316020903e-135
aF2.780818387826159e-275
aF0.0
aF2.3144265205443294e-103
aF0.0
aF0.0
aF0.0
aF0.0
aF3.3544899916999825e-36
aF0.0
aF0.0
aF0.01520595365198378
aF0.015146342274657831
aF0.0
aF0.0
aF0.0
aF3.647882244351842e-289
aF5.286231454608842e-46
aF0.0
aF0.03230294693076837
aF3.264736762349616e-11
aF0.0
aF1.6430093889999365e-67
aF0.0
aF0.0
aF3.62453202609271e-94
aF0.0
aF3.482422046601941e-43
aF1.258545578784537e-68
aF0.0
aF2.3897609192380562e-36
aF8.272249745637061e-228
aF0.0
aF0.0
aF0.0
aF0.0
aF3.9707009596726064e-157
aF6.842127163857772e-248
aF0.008491892116511643
aF1.0872108317610243e-232
aF4.078576466097311e-17
aF0.0
aF7.494932601939631e-36
aF2.639998318695197e-106
aF1.9448869070791297e-61
aF0.0
aF0.0
aF0.008499032356560923
aF2.0193039320022447e-39
aF7.136767066602237e-113
aF2.5336700269017e-310
aF0.0
aF0.0
aF0.0
aF9.08650905307575e-159
aF2.906096123859827e-07
aF0.0
aF0.0
aF1.5765925792087757e-48
aF1.1333676229878242e-187
aF0.0
aF0.0
aF1.1200048359128126e-238
aF0.0
aF0.0
aF0.0
aF0.007603452167098043
aF1.4028134476390912e-160
aF1.1283357122080489e-307
aF0.0
aF6.028011935528894e-248
aF0.0
aF0.008499032356560923
aF0.0
aF0.008499032356560923
aF0.0
aF0.008499032356560923
aF0.0
aF0.0
aF0.0
aF1.8458787466692524e-57
aF0.0
aF9.31418600518734e-55
aF0.0
aF0.0
aF1.414723686030036e-109
aF0.0
aF0.0
aF2.6959771235909714e-80
aF2.7906290582075465e-129
aF0.0
aF0.0
aF3.889849709379191e-15
aF0.0
aF0.0
aF2.495062469333664e-198
aF0.0
aF0.0
aF0.0
aF1.2656238757000985e-78
aF0.0
aF0.0
aF1.6571338221236913e-125
aF9.914556006003742e-127
aF0.0
aF0.0
aF4.251284632291769e-214
aF8.911011307901455e-18
aF6.707101185e-312
aF0.013784879717409786
aF0.0
aF0.0
aF0.0
aF0.0
aF0.0
aF0.0
aF0.0
aF1.9745193295203415e-81
aF0.0
aF0.0
aF0.0
aF6.714970483197472e-279
aF5.548919471090922e-12
aF1.8221401071558639e-209
aF0.0
aF1.8740537157949754e-158
aF0.005601551168051625
aF1.4093674037852754e-102
aF0.0
aF4.6264790979551745e-206
aF0.008499032356560923
aF0.0
aF0.0
aF0.0
aF0.0
aF0.0
aF0.0
aF9.265884339185765e-199
aF0.0
aF2.89464333930421e-122
aF0.0
aF0.0
aF1.6023497898763114e-104
aF0.0
aF0.008715361002630127
aF0.0
aF4.3934611869537595e-24
aF0.0
aF9.780403719385668e-159
aF9.634361642513163e-260
aF0.025497097069682773
aF0.0
aF9.268489708017864e-166
aF0.0
aF1.734539988116025e-157
aF0.0
aF0.0
aF0.017015998105638305
aF5.2116215986461145e-99
aF0.0
aF0.0
aF0.0
aF0.016998064713121565
aF0.0
aF0.0
aF0.0
aF0.0
aF7.898485059252362e-271
aF0.0
aF1.4054202123594146e-60
aF0.0
aF0.0
aF0.012982507929633173
aF4.930842143812604e-56
aF0.0
aF0.0
aF4.974975929030545e-306
aF0.0
aF2.1483795575783154e-79
aF0.0
aF0.0
aF9.552729615253341e-47
aF6.778966553274333e-23
aF0.0
aF0.0
aF6.467079720879573e-119
aF2.1583123925514988e-243
aF3.2362988941943835e-157
aF0.0
aF0.0
aF2.990360201968452e-92
aF1.0539386057913923e-48
aF0.0
aF0.0
aF0.0
aF2.964857350147297e-45
aF0.0
aF0.0
aF4.464831446589402e-83
aF0.0
aF0.0
aF0.0
aF0.0
aF0.0
aF0.0
aF0.0
aF0.0
aF0.0
aF6.4866144876897055e-46
aF0.0
aF0.0
aF1.3691596807980754e-45
aF0.0
aF0.0
aF2.636254952052098e-43
aF3.893740249352787e-108
aF1.175443291686483e-22
aF8.028146923136172e-167
aF2.7720512762550716e-75
aF4.0833129953957575e-45
aF0.0
aF0.0
aF0.0
aF4.1352738169933757e-116
aF0.0
aF6.17775777492275e-133
aF0.0
aF0.0
aF5.721373175726819e-48
aF0.0
aF1.773525539435196e-195
aF2.3251734110477487e-57
aF3.483845905903446e-139
aF2.8524799520802735e-156
aF0.0
aF0.0
aF0.0
aF6.604473559119557e-277
aF3.2153954946493862e-170
aF0.0
aF0.0
aF0.0
aF3.5087227933093846e-107
aF3.249220694169443e-152
aF0.0
aF0.0
aF0.0
aF0.0
aF0.008499032356560923
aF0.0
aF0.0
aF0.0
aF2.4048146915702224e-154
aF0.008499032356560923
aF0.0
aF0.0
aF3.362189056788815e-222
aF0.0
aF0.0
aF0.0
aF0.0
aF6.645334717727684e-63
aF0.0
aF0.0
aF8.438269446642352e-90
aF2.2595862864561283e-300
aF0.0
aF6.515565607754616e-16
aF0.0
aF0.0
aF0.0
aF0.0
aF0.0
aF0.0
aF1.7624521644703335e-45
aF3.9696230247564463e-72
aF4.0705909832800126e-67
aF0.0
aF0.0
aF0.0
aF0.0
aF0.0
aF0.0
aF0.0
aF0.0
aF5.588371633002493e-137
aF0.0
aF0.008438263264841313
aF0.0
aF3.7677129417724294e-79
aF0.0
aF0.0
aF3.97668899681222e-161
aF8.852171159004521e-48
aF0.0
aF0.0
aF0.0
aF0.0
aF9.546162647740815e-65
aF0.0
aF0.0
aF0.0
aF0.0
aF0.0
aF1.5945333607917038e-45
aF0.0
aF1.882661191347948e-78
aF5.34127164302785e-133
aF4.42378127088492e-60
aF0.0
aF0.0
aF0.0
aF0.0
aF0.0
aF1.4425223233400098e-53
aF0.0
aF1.7126577428595825e-16
aF0.0
aF2.1763278270643647e-284
aF0.0
aF0.0
aF0.0
aF0.0
aF8.315939357889779e-166
aF0.0
aF2.505008922624507e-241
aF0.0
aF2.693848922760399e-109
aF1.8004559197600954e-44
aF0.0
aF0.0
aF0.0
aF6.3184692307e-313
aF0.0
aF0.0
aF0.0
aF0.0
aF0.0
aF1.2014067474330478e-45
aF8.575549880847502e-174
aF0.0
aF0.0
aF3.172608908613285e-106
aF0.0
aF0.0
aF0.0
aF0.0
aF0.0
aF7.436404130559653e-298
aF8.404526018133597e-21
aF0.0
aF0.0
aF8.471890478911872e-104
aF1.1606862703935766e-225
aF0.0
aF0.0
aF6.70029243421899e-72
aF0.0
aF0.0
aF0.0
aF4.067786544470969e-144
aF0.0
aF0.0
aF0.0
aF0.0
aF0.0
aF0.0
aF0.008499032356560923
aF0.0
aF2.228707765903059e-172
aF8.067251433722815e-60
aF1.3276886609967914e-159
aF0.0
aF1.2037522141233949e-130
aF2.916109805469826e-55
aF0.0
aF7.017985e-318
aF0.0
aF1.5312537293429524e-113
aF1.7682404794278837e-189
aF0.0
aF0.0
aF0.0
aF0.0
aF0.0
aF0.0
aF0.0
aF1.2266464651347793e-252
aF0.0
aF1.2124591717888785e-44
aF0.008499032356560923
aF0.0
aF0.0
aF0.0
aF0.0
aF0.0
aF0.0
aF7.936037976918766e-169
aF0.0
aF0.008499032356560923
aF0.0
aF7.97793107300399e-216
aF0.0
aF0.0
aF0.0
aF0.0
aF0.0
aF9.367196440680475e-46
aF0.0
aF4.5816243200143143e-135
aF6.416834053798153e-148
aF0.0
aF0.0
aF0.0
aF0.008499032356560923
aF0.0
aF0.0
aF0.0
aF0.0
aF0.008499032356560923
aF0.0
aF0.0
aF0.0
aF0.0
aF0.0
aF3.731204500861744e-175
aF1.3119769092317287e-124
aF1.1261222718312974e-45
aF0.0
aF0.0
aF5.189689239098357e-26
aF4.5891548797483145e-18
aF0.008499032356560923
aF0.0
aF0.0
aF0.0
aF4.1528621530758794e-167
aF0.0
aF1.1842876762930968e-147
aF0.0
aF0.0
aF0.0
aF0.0
aF0.0084990323565609
aF0.0
aF0.0
aF0.0
aF0.0
aF0.0
aF0.008499032356560923
aF1.5681141762993326e-237
aF9.192606606139728e-196
aF0.0
aF0.0
aF0.0
aF0.0
aF0.0
aF0.0
aF0.0
aF0.0
aF3.663240409924809e-133
aF2.051140269470278e-154
aF0.0
aF1.4072997376519534e-228
aF2.1028960100719632e-254
aF3.657228914183794e-76
aF0.0
aF0.0
aF0.0
aF0.0
aF0.0
aF0.0
aF0.006461322802143119
aF0.0
aF0.0
aF0.0
aF0.0
aF1.1159265925025208e-281
aF3.965913389919046e-128
aF1.497362051540381e-45
aF0.0
aF0.0
aF1.6069073092257805e-176
aF0.0
aF0.0
aF4.873372599725976e-207
aF0.0
aF0.0
aF0.0
aF0.0
aF0.0
aF3.863653600224023e-192
aF0.0
aF0.0
aF0.0
aF0.0
aF1.1148337625896863e-299
aF0.0
aF0.0
aF0.0
aF1.159633518485123e-17
aF3.359655278066252e-173
aF0.0
aF0.0
aF0.0
aF2.3615791362889872e-45
aF0.0
aF0.0
aF0.0
aF1.545712803606712e-54
aF2.998014935123916e-167
aF0.0
aF0.0
aF0.0
aF0.0
aF1.0391542294161321e-132
aF0.0
aF6.261325796962633e-23
aF0.0
aF2.7012938461179772e-120
aF0.0
aF0.0
aF5.948694885077853e-56
aF0.0
aF2.290969204810805e-228
aF0.0
aF0.0
aF5.383686958278794e-274
aF0.0
aF0.0
aF2.8629169632143062e-22
aF0.0
aF0.0
aF0.0
aF0.0
aF0.0
aF4.433134244409356e-108
aF0.0
aF2.3215068071058663e-225
aF1.377877525941298e-262
aF0.0
aF1.4645440280921865e-150
aF0.0
aF5.799335973712637e-234
aF0.0
aF2.341818448703412e-148
aF0.0
aF0.016998064713121847
aF0.0
aF8.470067900382399e-187
aF0.0
aF0.0
aF0.0
aF2.3322471802063193e-173
aF0.0
aF0.0
aF0.0
aF0.0
aF0.0
aF8.13986133330244e-51
aF0.0
aF0.0
aF0.0
aF0.0
aF0.0
aF0.0
aF0.0
aF0.008499032356560923
aF0.0
aF0.0
aF0.0
aF0.0
aF0.0
aF8.167912020771253e-17
aF0.0
aF0.0
aF0.0
aF0.0
aF0.0
aF7.939481596630164e-237
aF0.0
aF0.0
aF0.0
aF0.0
aF0.008499032356560923
aF2.8448888590427383e-171
aF9.12297929523128e-159
aF1.10090204283106e-116
aF0.0
aF0.0
aF0.0
aF0.0
aF3.1802881018952745e-167
aF0.0
aF2.671766460160908e-53
aF0.0
aF0.0
aF0.0
aF0.0
aF0.0
aF0.0
aF7.063221177831893e-218
aF7.29452772915526e-61
aF0.0
aF0.0
aF0.0
aF1.005912503544772e-74
aF0.0
aF0.0
aF0.0
aF0.0
aF0.0
aF0.0
aF2.2961190819821374e-106
aF0.0
aF0.0
aF0.0
aa(lp30
F1.910248150678484e-43
aF0.0
aF0.00755223382523503
aF2.399700543274954e-281
aF7.619917603810354e-57
aF1.1332363948775834e-72
aF0.09338003302978601
aF5.2473622404038645e-48
aF2.8122577212840205e-16
aF6.102952503601059e-26
aF0.0
aF0.018196865122621187
aF7.88342197776505e-185
aF0.0
aF2.2470205908622803e-166
aF1.0393149117575429e-36
aF0.0050832564892231286
aF1.1068056779013551e-22
aF4.413069762785003e-40
aF9.745683851128189e-62
aF0.0
aF0.0
aF3.8225992430325827e-178
aF0.0
aF2.0206933669667793e-73
aF1.245549653899461e-197
aF0.0
aF0.0
aF0.0317437165845655
aF1.4810197973290813e-115
aF9.412608272017561e-84
aF0.0
aF1.1292024542769377e-82
aF0.05643534404158981
aF7.520185388191918e-32
aF0.06075856915636973
aF9.447437281026128e-208
aF0.0
aF1.5239939425327981e-167
aF0.0
aF2.3123703747370742e-92
aF0.0
aF1.6332941262534442e-153
aF2.362251927123676e-292
aF4.190748859735764e-66
aF0.0
aF0.0
aF4.409391991345263e-227
aF0.005083256489222943
aF2.7925332106581856e-143
aF1.1687707365806156e-178
aF0.0
aF1.4206627979399525e-20
aF3.4680357199207356e-46
aF0.0
aF0.0
aF0.00794375095749363
aF1.0716598925830567e-94
aF3.3291706018861917e-133
aF2.5601555072818704e-33
aF0.007858761571824791
aF1.4326183744417296e-47
aF0.0
aF2.040340474668316e-27
aF0.0
aF0.032455873800696644
aF0.0
aF9.481708301879886e-92
aF0.0
aF9.840047698379477e-42
aF0.0
aF0.0050832564892231286
aF2.7300094053254454e-143
aF6.593669434694595e-82
aF0.0
aF5.627194407621971e-164
aF0.05100650116733025
aF6.957449934483749e-166
aF2.120199174041283e-32
aF1.2759426189627811e-135
aF0.015249769467669386
aF0.0
aF1.1110376811972752e-108
aF0.0
aF1.2934471910326425e-171
aF0.0
aF0.0
aF5.646285032162879e-70
aF3.6132861684257755e-68
aF0.0
aF5.1687240196382264e-74
aF0.0
aF1.465032712531675e-35
aF4.795055597319444e-131
aF4.293663549934526e-174
aF0.0
aF0.0
aF0.08920247648042033
aF1.75572916247907e-83
aF0.0050832564892231286
aF0.025108755822935928
aF5.386717808892036e-59
aF0.0
aF0.0
aF0.005069292760919321
aF1.2477757302267625e-43
aF0.0
aF1.0744565545621226e-26
aF2.269233886838831e-72
aF1.9390049605511234e-32
aF3.9308691078610575e-37
aF0.0
aF0.0
aF0.0
aF1.519954963949227e-40
aF3.2111342423947678e-142
aF2.917497184524931e-42
aF0.0
aF0.0
aF0.04916781693365157
aF0.0
aF0.0
aF6.5906021681412236e-124
aF2.147326453981928e-146
aF2.209555864000712e-197
aF0.0
aF9.03394604548383e-64
aF1.685767980079769e-58
aF7.53896699804362e-29
aF6.957477962382001e-131
aF7.017526849510521e-23
aF4.905780695147075e-19
aF0.0
aF0.0
aF8.966323425077106e-51
aF0.004643152201634347
aF3.2892802814348682e-77
aF7.793604532918224e-120
aF5.336535923550248e-79
aF2.0815423024705943e-72
aF0.0
aF1.1402127764953519e-47
aF9.121631211178673e-133
aF1.3423886724676533e-24
aF0.0
aF0.010053875472287649
aF5.824329086544642e-43
aF0.00531540475871202
aF0.0
aF0.0
aF0.0
aF0.0
aF2.5867795014169548e-101
aF1.6447892274380032e-62
aF0.0
aF1.178459908380416e-209
aF6.130388918998934e-34
aF2.476017225544805e-306
aF0.01531096903015099
aF0.012665418342133021
aF0.0050832564892231286
aF1.1667386057653656e-25
aF0.01066866681097089
aF0.0
aF1.2067447145636996e-143
aF0.0
aF0.0
aF0.0
aF0.0
aF6.157396235552963e-102
aF8.394158243441616e-90
aF0.0
aF1.710350667128754e-182
aF2.7847234802553857e-74
aF0.0
aF1.9190541600769106e-187
aF1.7689472429528433e-159
aF3.061714405042444e-149
aF6.059374413389617e-153
aF4.493784025817328e-133
aF0.0
aF0.0
aF0.009152278289538063
aF1.2446933539077588e-38
aF0.0
aF0.010205480486346534
aF8.051887025103986e-192
aF0.01828739554069049
aF0.0
aF0.0
aF0.0
aF0.0
aF0.016100528541162333
aF0.0
aF0.0
aF0.006155113505733282
aF6.853556049189213e-62
aF1.5923284318143557e-57
aF0.0
aF4.4235321035422175e-115
aF0.0
aF0.0
aF5.938958002597248e-260
aF3.2373879221915855e-102
aF2.6567830300451627e-82
aF1.4742658351894673e-72
aF2.980579847990331e-81
aF6.318030472347151e-240
aF0.0
aF0.0
aF9.864225931067425e-74
aF0.0
aF0.0
aF0.0
aF0.006477569272407285
aF0.0
aF0.0
aF1.49030716804548e-44
aF0.0
aF3.0020329453812264e-215
aF0.005084665124777991
aF0.008526288790409259
aF0.0
aF0.0
aF3.2389587070692944e-31
aF0.0
aF1.7762641032600719e-71
aF6.678426367401121e-32
aF0.014482072134217384
aF2.4552148537601287e-90
aF0.0
aF0.0
aF0.0015048195244488
aF5.739690273365593e-06
aF0.0
aF0.0
aF1.1313339131929221e-109
aF0.0050832564892231286
aF6.548728126011177e-253
aF3.2853186308797e-108
aF0.0
aF7.065238371369792e-205
aF3.585474719508336e-52
aF0.015081163035751015
aF0.0
aF1.5037288622991475e-19
aF0.0
aF0.0
aF2.3421189801516434e-166
aF0.0050832564892231286
aF0.03558279542456343
aF0.0
aF2.3002606821589034e-159
aF0.0050832564892231286
aF0.0
aF2.8163487818819904e-85
aF0.0
aF5.843614909687986e-159
aF0.0
aF1.1904992612907227e-203
aF0.0
aF0.0
aF1.268551009415159e-73
aF0.0
aF8.664691469618102e-139
aF0.0
aF6.839734624929999e-106
aF1.1171388264557695e-124
aF1.42896165889019e-143
aF0.005639270489458992
aF8.437287138288244e-81
aF3.7568968945527223e-109
aF0.0
aF0.0
aF0.0
aF0.0
aF2.998607341135945e-49
aF0.005083247156027194
aF0.0
aF6.402145223968845e-156
aF0.0
aF0.0
aF0.0
aF1.3326774677378038e-289
aF9.92164743424553e-162
aF0.0
aF1.8459965836793257e-149
aF2.0539884629070424e-170
aF0.0
aF0.0
aF0.0050832564892231286
aF5.345764824279673e-49
aF6.376829347462236e-132
aF9.962871166481006e-206
aF0.0
aF0.0
aF0.0
aF0.0
aF0.0
aF0.0
aF0.0
aF1.2209530805644854e-56
aF2.368361897593391e-91
aF5.076491209952674e-44
aF1.6522233250015104e-34
aF1.7660960279858087e-133
aF6.480240592676646e-125
aF0.0005630898071938418
aF0.0
aF2.17184940039887e-76
aF3.566371279467699e-60
aF5.27351832430664e-83
aF2.7103544755404473e-137
aF0.0
aF0.0
aF0.005083256483526671
aF0.0
aF1.725217947145953e-70
aF0.0
aF0.0
aF4.6272824904910755e-177
aF3.451893878029223e-36
aF0.0
aF0.010160820371096418
aF0.0
aF0.0
aF1.72716384888685e-11
aF1.0501097460697247e-79
aF2.8015767207762534e-145
aF6.824712336597207e-104
aF2.414161048629111e-63
aF4.665125384566465e-166
aF3.2856909827304453e-223
aF0.005083257204397916
aF2.3240515953677444e-131
aF8.46901443487154e-183
aF1.093532207196858e-05
aF6.241325573714183e-196
aF4.477567951503064e-24
aF4.39839481465207e-292
aF0.0
aF3.946300064069853e-44
aF1.088037649122353e-174
aF0.0050832564892231286
aF0.0
aF0.0
aF2.090851596651482e-117
aF0.0
aF0.0
aF0.0050832564892231286
aF0.0
aF3.121374870649234e-45
aF7.433357829930115e-207
aF1.7689778335094144e-42
aF0.0
aF0.0
aF0.0
aF0.0
aF0.0
aF2.553028435623785e-149
aF2.3830920614664973e-126
aF0.0
aF5.873896393470206e-154
aF0.0
aF1.2032014942859473e-127
aF0.0
aF3.459516017745599e-70
aF6.501418957947142e-37
aF7.416307240517811e-28
aF0.005074413103993651
aF7.95574202872446e-128
aF1.0016930456172026e-179
aF0.0
aF0.0
aF2.9838827525034196e-140
aF0.0
aF0.0
aF0.0
aF1.1192912949561403e-164
aF0.0
aF0.0
aF0.005066791611661268
aF0.0
aF2.702299723414792e-110
aF0.0
aF7.92235482174692e-177
aF0.0
aF7.462770497320367e-47
aF6.161504343624842e-199
aF0.0
aF0.0
aF0.0
aF0.0
aF0.0
aF6.951939730326027e-184
aF0.0
aF0.0
aF0.0050832564789745835
aF0.0
aF1.1036482852052932e-32
aF0.0
aF2.2088696435112393e-71
aF2.2932683965509297e-294
aF0.0
aF0.0
aF0.0
aF4.821408616519612e-165
aF7.399427491851186e-42
aF3.5509574482525906e-42
aF0.0
aF0.0
aF0.0
aF0.0
aF0.0
aF8.372116483042698e-36
aF2.0058318591574998e-72
aF0.0
aF0.0
aF0.0
aF0.0
aF2.1342264576104955e-97
aF4.324362061577429e-206
aF1.1909414218868519e-98
aF0.0
aF0.0
aF0.0
aF1.7157596053292633e-17
aF0.0
aF0.0
aF0.0
aF0.0
aF0.0
aF0.0
aF0.0
aF0.0
aF0.010166512978446257
aF0.0
aF0.0
aF0.0
aF0.0
aF5.898825585700906e-302
aF2.000326140154425e-45
aF0.0
aF8.034765938467595e-206
aF2.5070873500491137e-63
aF5.2614958417705065e-34
aF0.0
aF3.35647869049889e-209
aF0.0
aF2.602770183322759e-43
aF6.481550596354118e-208
aF2.7027455961787043e-48
aF4.39921299088022e-81
aF0.0
aF2.691982626015049e-73
aF3.1690729083132717e-121
aF0.0
aF0.0
aF0.0
aF2.7381175962607754e-19
aF1.4730730745473917e-72
aF0.0
aF0.0
aF1.0043900407717082e-52
aF0.0
aF7.548828438752125e-114
aF0.0
aF1.0796385978320272e-93
aF0.010271917068453708
aF3.7428948502364357e-236
aF0.0
aF1.9929430889603443e-172
aF2.3918660129378407e-203
aF1.868083175074357e-186
aF1.4827839529569837e-43
aF0.0
aF1.5051541265163796e-194
aF1.6714891506475632e-213
aF0.004690660163017071
aF6.691383747308605e-206
aF0.0
aF0.0050832564892231286
aF2.8719891335702415e-149
aF7.855316560672554e-219
aF0.0
aF0.0
aF0.0
aF0.0
aF0.0
aF0.0
aF0.0
aF1.9005413317558842e-169
aF0.0050832564892231286
aF0.0
aF0.0
aF0.0
aF0.0
aF0.0
aF3.6e-322
aF4.541871806248208e-34
aF4.347450540487471e-49
aF1.4622883028639593e-91
aF5.306335839334392e-150
aF0.0
aF0.0
aF0.0
aF2.2645865657748673e-184
aF0.0
aF5.252934645830817e-186
aF9.181919231686828e-251
aF0.0050832564892231286
aF0.0050832564892231286
aF0.0
aF1.424476813972225e-92
aF1.6764312066467098e-203
aF0.0
aF0.0
aF1.2934680602526803e-159
aF1.6148935953986165e-91
aF0.0050832564892231286
aF5.045947577028033e-25
aF0.0
aF3.207863155431754e-267
aF6.937189231452509e-91
aF0.0
aF0.0
aF1.4280052815200005e-154
aF4.761295365297669e-22
aF0.0
aF3.6778701687979693e-78
aF2.4113638134531446e-104
aF0.0050832564892231286
aF0.0
aF4.055291810161282e-54
aF0.0
aF0.0
aF0.0
aF1.0880366107242935e-142
aF0.0
aF0.0
aF0.0
aF0.0
aF0.0
aF0.0
aF1.6861780945604187e-146
aF0.0
aF0.0
aF0.0
aF0.0
aF0.0050832564892231286
aF0.0
aF0.0
aF0.0
aF4.1181864564122114e-63
aF0.0
aF2.1128449096137253e-177
aF0.0
aF8.432799120443395e-80
aF2.2128163295442087e-289
aF6.1643686e-317
aF0.0
aF0.0
aF1.9409131279727725e-86
aF0.0
aF1.4153235988084544e-167
aF5.2529326353536115e-33
aF0.0
aF0.0
aF0.0
aF8.676372690061529e-169
aF4.814802992048222e-31
aF6.413769678372245e-275
aF0.0
aF0.0
aF0.0
aF5.908919151089637e-190
aF0.0
aF0.0
aF0.0
aF0.0
aF0.0
aF3.197035772168379e-60
aF0.0
aF0.0
aF1.3276104976462584e-163
aF0.0
aF0.0
aF0.0
aF1.4973506484091185e-25
aF0.0
aF1.6664647553939792e-162
aF1.360476466795798e-192
aF0.0
aF3.725169210442848e-191
aF9.492875494393594e-95
aF0.0
aF0.0
aF0.0
aF0.0
aF3.87897074446726e-177
aF6.292581617700831e-175
aF5.199588928640894e-92
aF4.2979766435791814e-200
aF3.3083523488280384e-206
aF3.8492102234872917e-293
aF0.0
aF0.0
aF0.0
aF1.5727597685702469e-105
aF0.0050832564892231286
aF0.0
aF1.0777200138809705e-130
aF4.769218977298979e-176
aF5.587169725417109e-206
aF0.0038491127029262506
aF3.598381939397471e-49
aF0.0
aF0.0
aF2.4355660888283015e-90
aF2.5045900826621563e-201
aF0.0
aF0.0
aF0.0
aF0.0050832564892231286
aF0.0
aF0.0
aF0.0
aF2.4996696592873643e-65
aF0.005083256489223126
aF7.085153981614166e-139
aF0.0050832564892231286
aF1.4494250905400067e-263
aF3.836136447528145e-70
aF4.7318351879082074e-64
aF4.44477323927058e-247
aF0.0
aF3.533033545616205e-92
aF0.0
aF0.0
aF0.0
aF0.0
aF0.0
aF9.422411081502465e-114
aF0.0
aF6.97947529199641e-109
aF0.0
aF0.0050832564892231286
aF0.0
aF0.0
aF4.269440239083723e-53
aF0.0
aF0.0
aF0.0
aF0.0
aF6.868022533898178e-96
aF0.0
aF0.0
aF1.3625157950495731e-244
aF0.0
aF0.0
aF0.0
aF1.5960709094903378e-291
aF7.852796909315837e-154
aF0.0
aF0.0
aF0.0
aF0.0
aF0.0
aF7.122839544301409e-45
aF8.35529543683331e-253
aF0.0
aF0.0
aF4.450785926182901e-69
aF0.0
aF0.0
aF0.0
aF0.0
aF0.0
aF0.0
aF0.0
aF5.1641440768937434e-95
aF0.0
aF0.0
aF0.0
aF1.5645510573757413e-48
aF1.524211038812269e-89
aF0.0
aF0.0
aF0.0
aF0.0
aF1.1934245203180467e-296
aF0.005075661334566451
aF0.0
aF0.0
aF0.0
aF1.7547193419020608e-164
aF0.0
aF0.0
aF3.832661468683726e-23
aF0.0
aF0.0
aF0.0
aF1.4425976255664999e-127
aF0.0
aF1.4942682601255944e-237
aF5.695072804834359e-202
aF0.0
aF0.0
aF0.0
aF0.0
aF0.0
aF6.288816110680129e-92
aF0.0
aF0.0
aF0.0
aF0.0
aF0.0
aF0.0
aF0.0
aF0.0
aF0.005083256489223121
aF0.0
aF3.604481351437194e-125
aF6.796365525884766e-201
aF5.771646687951115e-196
aF1.745003557475579e-226
aF0.0
aF0.0
aF0.0
aF5.989857939197846e-30
aF0.0050832564892231286
aF3.3736907657169827e-68
aF0.0
aF4.31566233049139e-108
aF0.0
aF2.291820282873172e-32
aF7.848793525013295e-73
aF0.0
aF0.0
aF3.0627837804012387e-19
aF0.0050832564892231286
aF0.0
aF0.0
aF0.010166512978446177
aF0.0
aF0.0050832564892231286
aF9.333652718144174e-151
aF0.0
aF1.7989926202175213e-214
aF2.1945739916000437e-147
aF0.0050832564892231286
aF0.0
aF0.0
aF0.0
aF3.4378144518686816e-209
aF0.0050832564892231286
aF0.0
aF8.304063655568322e-48
aF0.0
aF6.129078575658614e-91
aF0.0
aF7.638953074481381e-78
aF0.0
aF9.424992154230534e-64
aF6.024438762318076e-60
aF3.617137006341527e-295
aF0.0
aF0.0
aF0.0
aF9.450126837294306e-112
aF0.0
aF0.0
aF0.0
aF0.0
aF6.168440605414069e-208
aF6.047932540240053e-209
aF6.6431869487629885e-140
aF0.0
aF0.0
aF1.0403286187695361e-112
aF0.0
aF5.14613383484058e-89
aF0.0
aF1.0795210215707819e-36
aF1.52232920827061e-67
aF0.0
aF1.2874997509691655e-223
aF4.672119984615273e-201
aF0.0
aF0.0
aF0.0
aF3.142570040659011e-225
aF0.0
aF0.0
aF4.652825431842721e-151
aF0.0
aF0.0
aF4.333524584462689e-07
aF3.1853645883408173e-198
aF0.0050832564892231286
aF0.0
aa(lp31
F2.3368848331314674e-66
aF1.1549359530014915e-92
aF0.03177641330364824
aF0.0
aF5.617946039141167e-112
aF0.0
aF1.1844977542308278e-86
aF0.0030723327040023205
aF0.012373245833451271
aF9.66582964729861e-38
aF0.0
aF3.355121747746214e-176
aF6.333057067396191e-254
aF0.0
aF6.568995541939038e-200
aF0.16092377288980142
aF7.381857908941472e-76
aF4.584996504129566e-153
aF2.7985137183836817e-28
aF2.1219101917527865e-86
aF0.0
aF2.717366696156901e-154
aF1.1873907508468263e-211
aF7.201824961390701e-52
aF0.0017240410746960178
aF0.0
aF0.0
aF0.0
aF0.003813352480827591
aF0.003574407756191397
aF0.003816162528926529
aF3.2550945353135737e-75
aF2.7736566021525206e-176
aF3.6932457231940375e-88
aF3.2664280624444254e-48
aF9.930593248588894e-99
aF0.0
aF2.7149799890383227e-154
aF0.009669915510242223
aF0.0
aF2.0380146913920917e-168
aF2.5753065181412194e-166
aF4.697378518302796e-153
aF4.927564572525612e-181
aF1.350176104707161e-151
aF0.0
aF0.0
aF0.0
aF4.973094935111076e-187
aF4.387266025839812e-158
aF0.0
aF9.892680205307745e-114
aF0.013213789287163432
aF0.010913777316429807
aF0.0035198197156824824
aF0.0
aF9.338252820270695e-100
aF1.0636662890603116e-95
aF0.0
aF3.203379274270158e-181
aF1.0436774159843383e-117
aF2.642360895176588e-119
aF5.1474541070195246e-197
aF0.0
aF4.488053995384317e-262
aF8.274034199159405e-20
aF1.5290055974587865e-103
aF0.0
aF5.0277416e-316
aF0.0031916509153254546
aF0.0
aF6.57412387198704e-277
aF5.99375973152681e-303
aF0.03841724272155303
aF0.0
aF2.4744167040490924e-261
aF0.015518920948480857
aF2.6712887016510935e-114
aF0.017183862139415782
aF0.0
aF7.533192190873225e-233
aF0.0
aF0.024961517907189444
aF3.4452891832124567e-190
aF5.780511060193758e-128
aF0.0
aF0.0
aF1.333157687121775e-224
aF0.0
aF0.0
aF2.4816452818908343e-130
aF0.0
aF1.2083490510897424e-42
aF4.2568350789723527e-224
aF7.833974383102127e-180
aF0.0
aF0.0
aF0.019533232830321438
aF4.834817103163657e-168
aF3.307496902145762e-240
aF1.254063733474503e-57
aF0.049277476019554754
aF0.0
aF0.0
aF0.0
aF1.4776925696600704e-97
aF1.4027196999640187e-246
aF8.200135675526321e-96
aF0.07166939081930994
aF0.0
aF3.1240934627640223e-156
aF7.459045234058438e-232
aF0.0035198197156824824
aF0.0
aF3.208490924316939e-18
aF0.0035198197156824824
aF5.6135056298643334e-14
aF9.2564803391535e-177
aF4.905102469567746e-190
aF0.004644446298945436
aF8.505580364418546e-271
aF1.2113814836365641e-102
aF0.0
aF1.6968210409759835e-170
aF0.0
aF0.0
aF3.4970974444370874e-240
aF0.003521747756838903
aF1.2132530276294956e-149
aF0.0
aF1.1450993413273975e-130
aF3.713535451619554e-64
aF2.459631515090896e-293
aF7.437401591913163e-220
aF1.397090634464626e-107
aF7.136795641361362e-230
aF0.008081212033003314
aF0.069282657472285
aF7.206923962267629e-255
aF0.0
aF0.0035259953284713487
aF1.4002888326241286e-45
aF0.006966785466124412
aF0.01999396744586773
aF0.0
aF3.704459024329886e-60
aF0.0
aF0.02655787579720206
aF0.0035198197156824824
aF1.8693736767488176e-170
aF0.007039639431364965
aF0.0
aF1.2267539869320041e-115
aF1.0791398376607163e-130
aF9.335493053990584e-177
aF2.1565916020547617e-291
aF0.017982631114421388
aF1.113605277086218e-287
aF0.010517082488094555
aF1.2271797073533666e-84
aF9.444350164535656e-236
aF3.2430224957874545e-81
aF4.751921720328163e-65
aF0.0
aF2.8460268767547452e-189
aF0.0035198197156824824
aF0.0
aF3.0966973742366835e-49
aF1.5511398642822408e-125
aF9.476812263617012e-160
aF0.0
aF4.2128768547243035e-164
aF3.3910569332627296e-233
aF0.007043473828989278
aF2.7044801820448665e-186
aF1.4516096711902219e-139
aF2.0375709514962107e-55
aF1.8032638309192644e-96
aF0.0035218570084274725
aF1.5999695332742145e-229
aF5.302930005441358e-297
aF8.896246421984966e-264
aF0.003548654324373609
aF0.02153293954517976
aF1.616028135653029e-254
aF0.0
aF0.0
aF2.432605757257805e-187
aF0.0
aF3.3618063423030676e-236
aF0.0
aF0.0035198197156824824
aF6.932590775244287e-116
aF3.2613667937395518e-83
aF0.0
aF9.859010874661879e-138
aF0.02157186520764341
aF2.6018283829969406e-237
aF7.432778243781257e-186
aF3.630412699277918e-175
aF0.010859711848642914
aF1.5053988673191315e-229
aF0.0
aF2.742704070169415e-107
aF1.1721058408774857e-155
aF0.0
aF7.404402029985665e-245
aF3.86991478862967e-172
aF0.0
aF2.1860435458630286e-169
aF4.16547500046437e-156
aF6.234001892009412e-193
aF0.007039639431364965
aF0.0
aF1.0763320919689046e-149
aF0.0035198197156824824
aF1.6518105197026437e-247
aF0.0
aF0.0
aF3.5546537118302104e-195
aF8.187032997981488e-204
aF0.0
aF0.003522776800282915
aF0.003519820027247188
aF5.7708830826012535e-130
aF1.9429888579461646e-202
aF7.449341717090135e-187
aF1.9870810311110178e-159
aF1.3586788375978892e-48
aF0.0
aF0.0
aF4.0455241263956327e-187
aF1.1832265650612389e-71
aF6.904281951608542e-112
aF0.0
aF1.818381159441416e-222
aF1.699685967643479e-145
aF0.0
aF2.224308191139041e-121
aF4.096996529584448e-143
aF0.008084155082083317
aF0.0
aF5.9510272768924894e-145
aF0.003642142823730183
aF8.873845532040947e-183
aF0.007039639431364965
aF0.0
aF0.0
aF7.173618933602554e-250
aF0.0
aF0.0038922248481353815
aF4.8937428505295254e-278
aF0.003505119374340944
aF0.0
aF0.0
aF4.858356737742731e-156
aF2.9555947378921673e-125
aF0.0
aF1.0757925204502256e-125
aF0.0
aF4.732369140079693e-253
aF0.0
aF1.9389505005031358e-291
aF7.235136172279433e-178
aF3.533494291187724e-252
aF0.0
aF4.7751009210538194e-163
aF0.0
aF0.0
aF0.0
aF1.7108339864300262e-173
aF4.835579492967266e-238
aF6.595480056789272e-193
aF0.0035202123379586337
aF1.467039220483885e-267
aF0.0
aF3.6522267468210356e-119
aF0.0035198261783048446
aF0.0
aF9.573454677784983e-164
aF0.0
aF0.0
aF0.0
aF0.0
aF0.0035198197156824824
aF0.0
aF3.983387708323257e-154
aF6.249961064025198e-251
aF1.9922462224305836e-120
aF0.0
aF2.778509883756521e-92
aF2.6164729904208827e-37
aF4.1833066024278424e-301
aF1.2968252061702712e-141
aF0.007039639431364965
aF0.0
aF0.0035198197156824824
aF0.0
aF0.0
aF0.0
aF0.0
aF0.0
aF0.0
aF9.625370466041907e-215
aF4.359991626463888e-263
aF0.0
aF1.0024567128816413e-208
aF6.0092684363390126e-80
aF6.938356191488825e-250
aF0.0
aF1.877579776527475e-64
aF0.003529562317738444
aF0.0
aF8.393412280004587e-172
aF2.2077076287155394e-254
aF0.0
aF0.0
aF2.588910125811846e-215
aF0.0
aF0.0
aF0.0
aF1.26562115546019e-196
aF1.3594702248323881e-198
aF7.514791380216228e-26
aF0.0
aF2.7049250585164475e-153
aF1.8234017145988603e-91
aF0.0
aF1.0600329695680349e-147
aF0.0
aF6.915971286379411e-113
aF0.0
aF0.0035198197156824824
aF0.0
aF8.323643654625359e-169
aF0.0
aF2.339870545699548e-173
aF2.6748264592082173e-86
aF0.0
aF0.003519910159414935
aF0.0035198197156824824
aF1.0074906261833283e-143
aF2.197534441723227e-219
aF0.0
aF0.0035198197156824824
aF3.1123467904783242e-189
aF6.63980054133669e-153
aF8.441780472976775e-200
aF0.0
aF1.395193218813141e-233
aF0.0
aF0.0
aF0.0
aF0.0
aF0.003528865355009886
aF0.0
aF1.0837918105583013e-135
aF0.007039639431364965
aF0.007039639431364965
aF0.0
aF1.4535271724686295e-211
aF5.891199561134477e-170
aF8.788528337871972e-265
aF0.0
aF0.0035198197156824824
aF1.9902353635583812e-231
aF4.611275604767273e-112
aF1.9282617886426374e-37
aF0.0
aF0.0032881656920997968
aF0.0037731424400489024
aF2.4971183906319837e-158
aF0.0
aF0.0
aF1.722282399078252e-175
aF2.7117369192201257e-199
aF0.0
aF0.0035198197156824824
aF3.460425087384754e-261
aF2.2440816516745637e-230
aF0.0
aF3.516379333799892e-120
aF0.0
aF0.0
aF5.526170436872171e-184
aF0.0
aF2.218346305640055e-130
aF0.0
aF0.0
aF0.0
aF0.0
aF0.0
aF4.8757837696878045e-231
aF0.0
aF0.0035198197156824824
aF1.2388083155317417e-230
aF0.0
aF0.0
aF1.4111222251439179e-151
aF1.4653558636295776e-162
aF3.991414205190947e-273
aF0.0
aF3.256795433610459e-199
aF1.1772177395613392e-230
aF0.0035198197156824824
aF2.3054600920118326e-246
aF0.0
aF0.0
aF6.456668229912782e-181
aF0.0
aF7.869650039767598e-148
aF1.3745046770169001e-151
aF1.3035337915048408e-231
aF4.353435348828964e-209
aF2.3687e-318
aF2.7737567734841795e-166
aF0.0
aF3.8567789617944205e-224
aF0.0035198678519196922
aF0.0
aF2.6719368329987083e-156
aF3.3988090923004383e-135
aF0.0037878600495690634
aF0.0
aF0.0035198197156824824
aF1.730629624452164e-253
aF6.9809089889295004e-236
aF4.063823e-318
aF7.988743324335848e-207
aF0.0035198197156824824
aF6.7897237464636e-231
aF2.1290688669671737e-283
aF1.4413452087879224e-195
aF0.0
aF0.0
aF0.0
aF0.0
aF3.14604346349329e-151
aF0.0
aF0.0
aF9.972369467464388e-87
aF0.0
aF1.5229175465220616e-259
aF0.0035669157978207838
aF0.0
aF1.0503619972507e-311
aF0.0
aF0.0
aF0.0
aF7.294673821471284e-21
aF0.0
aF1.950047353862058e-118
aF0.0
aF0.0
aF1.3582078269798088e-260
aF0.0
aF0.0
aF0.0
aF0.0035341024479616
aF0.00352191177795799
aF7.899727503157209e-33
aF0.0
aF0.0
aF0.0
aF0.0
aF0.0
aF0.0
aF0.0
aF0.0
aF2.632414797108566e-268
aF0.0035198197156824824
aF3.058636633723219e-122
aF0.0
aF0.0
aF0.0
aF0.0
aF3.0735043292721647e-167
aF3.751244006901438e-232
aF2.0444771191525247e-238
aF0.0
aF0.0
aF1.0824547914117983e-44
aF3.195617804625537e-234
aF0.0
aF1.34226289460278e-211
aF1.0150145322236356e-83
aF0.0
aF0.0
aF1.2697669880965969e-230
aF1.8810073824289014e-76
aF0.0
aF2.6504816213659277e-107
aF8.118493776990414e-251
aF0.0035198197156824824
aF0.0
aF0.0
aF0.0
aF5.687024232045369e-178
aF3.178019871586052e-287
aF2.7432508917971437e-169
aF0.0036380097252315105
aF0.0
aF0.0
aF0.0035198197156824824
aF0.0
aF0.0
aF0.0
aF0.0
aF0.0
aF0.0
aF0.0
aF1.9279814193608094e-212
aF6.220791855862405e-228
aF0.0
aF0.0
aF1.0999675487553261e-158
aF0.0
aF1.4166930041399046e-291
aF0.0
aF0.0
aF0.0
aF0.0
aF4.521079996394395e-230
aF0.0
aF8.595954316434909e-180
aF0.0
aF1.73377371560894e-251
aF0.010835425486690257
aF0.0
aF2.9191116710721937e-220
aF0.0
aF0.0
aF0.0
aF1.5594326091761712e-121
aF0.0
aF8.990023921284087e-291
aF2.1890886194031615e-113
aF0.0
aF0.0035198197156824824
aF0.0
aF0.0
aF0.0
aF0.0
aF0.0
aF4.249303128116306e-151
aF0.0035198197156824824
aF0.0
aF0.0
aF0.0
aF0.0
aF0.0
aF1.3567239469734888e-254
aF4.902542522906235e-72
aF0.0
aF0.0
aF3.974087862068169e-190
aF0.0
aF0.0
aF0.0
aF2.2540331393022355e-91
aF0.0
aF0.0
aF0.0
aF4.8043436612156875e-76
aF5.370329855822241e-85
aF2.594699050696789e-30
aF0.0
aF2.1274193048357144e-79
aF8.325604731386514e-202
aF1.610423888928655e-278
aF4.4688403472906e-78
aF7.980140260388826e-287
aF0.0035198197156824824
aF7.853334817768414e-230
aF8.013149929765233e-181
aF0.0
aF3.3359770780523743e-242
aF0.0
aF2.3739857018087947e-196
aF2.7088217539155356e-60
aF0.0
aF7.351066171045541e-87
aF0.0
aF3.0133365989061716e-187
aF3.7787397473522123e-112
aF3.170511870971517e-94
aF0.0
aF0.0
aF0.0
aF0.0
aF0.0
aF1.8471404827469396e-229
aF1.518524317034282e-259
aF9.64858172966471e-285
aF0.003461769975549803
aF0.0
aF0.0
aF0.0
aF2.451183170618486e-195
aF8.218771143743596e-301
aF0.0
aF0.0
aF0.0
aF3.1433272465549435e-194
aF0.0
aF0.0
aF0.0
aF0.0035198197156824824
aF8.916677810427195e-143
aF6.812706533650775e-213
aF0.0
aF3.058141396184213e-229
aF0.0
aF0.0
aF5.555179327436101e-82
aF5.899736389517647e-121
aF9.139387292390111e-124
aF0.0
aF0.0
aF3.39037430940733e-85
aF6.119353824025961e-273
aF1.5022076307788949e-198
aF0.0
aF0.0
aF0.0
aF0.0
aF0.0
aF3.915282690763513e-206
aF1.553622795277345e-187
aF0.0
aF0.0
aF0.0
aF0.0
aF3.2262466578267407e-254
aF0.0
aF0.0
aF0.0
aF3.923446379105334e-209
aF0.0035198197156824824
aF0.0
aF3.692305273684702e-154
aF0.0
aF0.0
aF6.243449449408053e-189
aF4.5764932627719845e-57
aF0.0
aF0.0
aF0.0
aF0.0
aF0.0
aF0.0
aF0.0
aF0.0
aF9.9035442269139e-310
aF0.0
aF0.0
aF6.765411734899842e-119
aF0.0
aF2.67547489182904e-208
aF0.0
aF0.0
aF0.0
aF4.1866406450858615e-156
aF6.340335241673292e-229
aF0.0
aF0.0
aF5.832870830365307e-278
aF0.0
aF0.0
aF3.706009823027748e-107
aF7.099106642281886e-162
aF0.0035198197156824824
aF0.0
aF0.0035198197156824824
aF0.0
aF1.901688837246303e-154
aF0.0
aF0.007039639431364965
aF1.804666364301479e-297
aF0.0
aF0.0
aF0.0035198197156824824
aF7.573300139914215e-214
aF0.0
aF6.665367866492586e-122
aF0.0
aF0.0
aF0.0
aF0.0
aF3.8052047194573574e-188
aF0.0
aF0.0
aF3.91528785031126e-239
aF4.5064150996287214e-147
aF0.0
aF0.0
aF0.0
aF1.9831406037375525e-84
aF0.0
aF1.7520313169272613e-128
aF0.0
aF6.076319765124383e-233
aF0.0
aF9.402958102341455e-240
aF0.0
aF0.0
aF3.140698005108258e-102
aF0.0035198197156824824
aF0.0
aF0.0
aF0.0
aF3.4820361906582416e-266
aF0.0
aF0.0
aF1.7042399692468684e-271
aF0.0
aF0.0
aF2.6998825251926564e-164
aF0.0035198197156824824
aF2.139934196133342e-223
aF6.466349634398441e-284
aF0.0035198197156824824
aF1.4106246056369554e-308
aF1.5920188798114269e-260
aF0.0
aF0.0
aF0.0
aF6.192323809830235e-82
aF0.0035198197156824824
aF0.0
aF0.0
aF7.330083183548219e-207
aF2.0273650558522825e-198
aF6.9212176281057585e-205
aF0.0
aF1.2707610038518072e-20
aF0.0
aF0.0035198197156824824
aF0.0
aF3.9293468550307043e-103
aF0.0
aF5.018368804193179e-212
aF0.0
aF1.9616849560088512e-282
aF3.5225868584842024e-44
aF0.0
aF0.0
aF0.0
aF0.0
aF0.0
aF8.088951558107801e-122
aF1.7582459356367205e-227
aF5.929524896635424e-60
aF0.0
aF0.0
aF2.6989768442653693e-148
aF0.0
aF2.3925239795307005e-118
aF0.0
aF4.038338361920406e-164
aF1.4666012285502098e-213
aF0.0
aF0.0
aF9.341846803462253e-268
aF0.0
aF0.0
aF6.885564324928078e-83
aF0.0
aF2.2166914706644498e-192
aF1.5503891732759304e-203
aF0.0
aF2.957056333499465e-257
aF0.0
aF0.0035198197156824824
aF3.15857886800275e-239
aF0.0
aF1.003e-321
aF0.0
aF2.3718719980321987e-293
aF0.0
aF0.0
aF0.0
aF0.0035198197156824824
aF0.0
aF0.0
aF0.0
aF0.0
aF0.0
aF0.0035198197156824824
aF0.0
aF0.0
aF0.0
aF0.0
aF0.0
aF0.0
aF0.0
aF0.0
aF2.071196033240275e-86
aF0.0
aF0.0
aF0.0
aa(lp32
F0.03233772848258784
aF4.0963625190025756e-53
aF9.355814123920557e-28
aF0.0
aF0.0
aF4.120609472770029e-74
aF2.3525405885879968e-116
aF0.0
aF2.5527254421744285e-26
aF2.6930784999768256e-110
aF0.0
aF9.896823414018385e-300
aF0.0
aF0.0
aF0.0
aF1.8917337886337925e-141
aF0.01519967371102468
aF3.86998246624166e-90
aF5.914091617595408e-18
aF1.805368362973009e-111
aF0.0
aF3.5229647979075925e-53
aF0.0
aF0.00010990766142464181
aF3.956654164703838e-19
aF0.0
aF0.0
aF0.0
aF0.09290146283844679
aF1.586612244641598e-168
aF0.00779956634124792
aF0.0
aF3.150180401461268e-72
aF0.0
aF3.944806134052261e-119
aF8.252568393425898e-131
aF0.0
aF0.0
aF0.0
aF0.0
aF5.497739471563659e-16
aF0.0
aF9.485103205077437e-117
aF1.47759222214938e-202
aF0.0
aF0.0
aF0.0
aF1.3622796335062641e-93
aF0.0
aF1.433332003688976e-120
aF0.0
aF0.0
aF0.0
aF0.0
aF0.0
aF0.0
aF0.007615852220124908
aF0.009179240449235222
aF0.0
aF0.022212868359602966
aF2.5804366152272397e-78
aF3.3929112368085756e-229
aF3.144874182274927e-54
aF0.007599836855514535
aF0.0
aF1.1316063140328065e-73
aF0.0
aF0.0
aF0.0
aF1.0464889608991513e-58
aF0.0
aF0.0
aF2.1143845402552414e-141
aF0.01128096801156227
aF0.0
aF7.843269759788897e-74
aF2.901417870357199e-76
aF6.87556944818924e-123
aF0.03857455314689276
aF0.0
aF0.0
aF0.0
aF0.0
aF0.0
aF0.033104338752190224
aF0.0
aF0.0
aF0.0
aF0.0
aF0.0
aF0.0
aF0.0
aF0.020521097767566467
aF3.4170007252724835e-226
aF4.470203930269119e-222
aF0.0
aF0.007599836855512344
aF1.97744460391599e-99
aF0.0
aF0.0
aF1.1452534108725782e-37
aF2.3352167635961978e-141
aF0.0
aF0.007599836855512344
aF0.0
aF0.0
aF0.0
aF0.0709155589215943
aF4.013751800330131e-111
aF0.0
aF5.242265529523353e-101
aF5.509708348936578e-54
aF0.0
aF0.0
aF1.2428045177430912e-69
aF0.0
aF0.007599836855512344
aF3.8336778115780326e-55
aF0.0
aF0.0
aF0.0
aF0.0
aF2.2195558390081138e-160
aF0.0
aF0.0
aF0.0
aF0.0
aF1.293374536887893e-153
aF1.7490034932946516e-50
aF0.0
aF7.334827661035593e-57
aF2.0897592142655016e-124
aF8.448594581837107e-118
aF0.0
aF0.0
aF9.454307226373481e-224
aF1.4550903945457334e-12
aF0.04092505192501897
aF4.596390359881815e-25
aF0.0
aF0.0
aF7.523054482310799e-62
aF0.0
aF1.0774286033635127e-30
aF0.0
aF0.007599657727786668
aF0.0
aF3.1980061002158916e-102
aF2.980158539562369e-67
aF0.0
aF3.1592517183995995e-191
aF0.0
aF0.016443611652740317
aF0.0
aF3.930805015199376e-47
aF0.0
aF2.9228887724576162e-77
aF0.0
aF0.0
aF2.971334296077445e-96
aF0.0
aF1.4746300172596308e-06
aF0.005438184042128808
aF2.400781465043575e-298
aF0.0
aF0.0
aF0.0
aF0.0
aF0.0
aF0.0
aF2.893500348252243e-155
aF0.0
aF0.007599836855512344
aF2.099154212160154e-50
aF0.0
aF1.0657349632059909e-50
aF2.1520697396423175e-77
aF9.236704839874865e-20
aF0.0
aF1.3293858180599977e-54
aF0.0
aF0.0
aF0.0
aF5.64784003533744e-167
aF8.618088198270616e-260
aF4.3608336601883314e-176
aF0.0
aF0.0
aF0.0
aF0.007599836855512344
aF0.0
aF0.0
aF2.7026843010213346e-40
aF0.007599836855512344
aF0.0
aF0.0
aF0.0
aF0.0
aF0.007599836855512344
aF0.0
aF0.0
aF9.799755335537556e-56
aF0.007599836855512286
aF0.02431352423551563
aF3.700581045403973e-63
aF6.13720324170644e-182
aF0.008712486736336553
aF0.0
aF0.0
aF0.015199673711024687
aF0.0
aF3.275763331542108e-53
aF3.683055321297619e-110
aF0.0
aF0.0
aF0.0
aF0.0
aF0.0
aF0.0
aF0.0
aF0.0
aF0.0
aF0.0
aF0.0
aF0.0
aF0.0
aF0.03769596794655863
aF1.2642000687395966e-215
aF3.563533003826731e-131
aF0.0
aF0.0
aF0.0
aF0.0
aF4.529962634581118e-157
aF0.0
aF0.0
aF0.0
aF0.0
aF0.0
aF6.93106392551608e-31
aF0.005342210355060141
aF0.0
aF1.9881673396224822e-47
aF0.0
aF0.0
aF0.0
aF0.007599836855512344
aF0.007599836855512344
aF0.015199673711024687
aF0.0
aF0.0
aF2.1261934961424056e-280
aF0.007599836855512597
aF0.0
aF0.0
aF0.0
aF4.3445876867148447e-131
aF0.0
aF4.1821544356732404e-95
aF0.0
aF0.0
aF0.0
aF0.0
aF0.0
aF5.747881687032492e-94
aF0.0
aF0.022746472461521772
aF0.0
aF0.0
aF1.375161226335831e-77
aF0.0
aF0.0
aF0.015199673711024687
aF5.2922167679176956e-110
aF0.0
aF0.0
aF0.037999184277562215
aF0.0
aF0.0
aF1.4245322984160861e-223
aF0.0
aF0.007599836855512344
aF0.0
aF0.007599836855512344
aF0.0
aF0.0
aF0.0
aF9.473635805929191e-212
aF0.0
aF0.0
aF0.0
aF0.0
aF8.647571837358592e-215
aF0.025672741392060452
aF0.0
aF0.0
aF0.0
aF0.0
aF0.0
aF0.0
aF0.0
aF0.0
aF0.0
aF7.477178767180428e-131
aF0.0
aF0.0
aF1.9680565995095035e-31
aF0.0006978274822827654
aF0.0
aF0.0
aF0.0
aF1.0037096025235646e-39
aF0.0
aF0.0
aF0.0
aF0.0
aF0.0
aF1.183919856161825e-186
aF0.0
aF0.0
aF4.30495133622504e-225
aF3.1847965573434514e-176
aF0.0
aF1.7015320138572965e-212
aF0.0
aF0.0
aF0.0
aF4.0218344720549015e-156
aF0.0
aF0.0
aF4.914886915235292e-62
aF0.0
aF0.0
aF0.007599836855512345
aF1.1613331033667619e-101
aF0.0
aF1.814986997951628e-100
aF0.0
aF0.0
aF0.0
aF0.0
aF3.218095321879587e-30
aF4.3289875832604584e-221
aF0.0
aF0.0
aF0.0
aF1.2830403244178287e-150
aF0.007599836855512344
aF0.0
aF0.0
aF0.0
aF0.0
aF4.001391382941892e-216
aF0.019694179534836948
aF0.0
aF0.0
aF3.297914264548924e-50
aF0.0
aF0.0
aF0.0
aF7.282894694521969e-295
aF0.0
aF2.558892327783187e-88
aF0.0
aF0.0
aF4.077699466982348e-54
aF2.096210425172429e-38
aF0.0
aF2.5259316029334045e-193
aF0.0
aF0.0
aF0.0
aF0.0
aF7.1817624990602884e-270
aF7.063833867616194e-127
aF4.094867237985436e-52
aF0.0
aF0.0
aF0.0
aF2.887515883810756e-54
aF0.0
aF0.0
aF3.368556054754384e-40
aF0.0
aF0.0
aF0.0
aF0.0
aF0.0
aF0.0
aF0.0
aF0.007599836855512344
aF0.0
aF5.915365921888145e-21
aF0.0
aF0.0
aF1.4287803629599398e-54
aF0.0
aF1.2836546892218397e-282
aF4.152590395724927e-54
aF0.0
aF0.007599836855512344
aF0.0
aF3.966257170326344e-86
aF9.798273905227736e-54
aF0.0
aF0.0
aF0.0
aF0.0
aF0.0
aF0.0
aF0.007599836855512344
aF0.0
aF2.2866756276038563e-55
aF0.0
aF3.8003997969868876e-299
aF2.158320960241632e-19
aF0.0
aF0.0
aF0.0
aF0.0
aF0.0
aF0.0
aF0.01046631249972755
aF0.0
aF0.0
aF0.0
aF2.6529540554541027e-89
aF0.0
aF0.0
aF0.0
aF0.007599836855512344
aF0.0
aF0.0
aF0.0
aF0.0
aF0.0
aF0.0
aF4.902851716293001e-71
aF0.0
aF1.175102580997399e-129
aF8.188238610443568e-10
aF0.0
aF0.0
aF0.0
aF0.0
aF0.0
aF3.7896927551652035e-187
aF0.0
aF8.492459057901737e-78
aF0.0
aF0.0
aF0.0
aF8.519675207601398e-169
aF0.0
aF1.09824894e-316
aF0.0
aF0.0
aF0.007599836855512344
aF3.8852901678516917e-56
aF0.0
aF5.386696418077325e-75
aF0.0
aF0.0
aF0.0
aF0.0
aF0.0
aF0.0
aF9.665997739450734e-230
aF0.0
aF0.0
aF0.0
aF3.352074700255108e-94
aF0.0
aF0.0
aF0.0
aF0.0
aF0.0
aF3.1641187049077614e-54
aF0.0
aF0.0
aF0.0
aF0.0
aF0.0
aF0.0
aF0.0
aF0.007599836855512344
aF0.0
aF0.0
aF4.1239466367745885e-54
aF0.0
aF0.0
aF0.0
aF0.0
aF0.0
aF0.0
aF0.007599836855512344
aF0.0
aF0.0
aF1.1100345714303755e-34
aF0.0
aF0.0
aF4.759501717659836e-191
aF4.1793538176068914e-256
aF0.0
aF0.0
aF0.0
aF0.0
aF0.0
aF0.0
aF0.0
aF0.0
aF0.0
aF5.944975309208465e-54
aF0.0
aF0.0
aF0.0
aF0.0
aF0.0
aF1.38889954940526e-235
aF0.0
aF0.0
aF0.0
aF1.4638519978259947e-53
aF4.653597306873324e-158
aF0.0
aF0.0
aF2.3846504599669327e-133
aF0.0
aF0.0
aF0.0
aF7.013647413400358e-209
aF0.0
aF0.0
aF0.007599836855506506
aF0.0
aF1.5410542980044592e-297
aF0.00759983685551239
aF3.698361135001173e-203
aF0.0
aF0.0
aF0.007599836855512344
aF0.0
aF0.0
aF0.007599836855512344
aF4.005876436416822e-155
aF0.0
aF0.0
aF0.0
aF0.0
aF0.0
aF0.0
aF0.0
aF0.0
aF8.205360608307398e-153
aF2.054387399818135e-29
aF0.0
aF0.0
aF2.8718891635431816e-116
aF4.144499118595926e-28
aF0.0
aF0.0
aF0.007599836855512344
aF2.3721199916109746e-138
aF0.002131642718108507
aF0.0
aF0.012922681416381816
aF0.0
aF0.0
aF0.0
aF0.0
aF0.002397690594940373
aF0.0
aF0.0
aF7.477809650741741e-54
aF1.6081857351057206e-97
aF0.0
aF0.0
aF0.0
aF0.0
aF0.0
aF0.0
aF0.0
aF0.0
aF0.0
aF0.0
aF0.0
aF0.0
aF0.007599836855512344
aF0.0
aF0.0
aF0.0
aF4.767888809526638e-55
aF0.0
aF7.82271309576898e-139
aF0.0
aF0.0
aF0.007599836855512344
aF0.0
aF0.0
aF0.0
aF0.0
aF0.0
aF0.0
aF0.0
aF0.0
aF0.0
aF0.0
aF0.0
aF0.0
aF0.0
aF0.0
aF6.679779033967498e-55
aF0.0
aF0.0
aF0.0
aF0.0
aF3.3582827231856865e-131
aF0.0
aF0.0
aF0.005056676813850521
aF0.007599836855512344
aF0.0
aF0.007599254984458603
aF0.0
aF0.0
aF0.0
aF0.0
aF2.0690640775130176e-17
aF0.0
aF0.0
aF0.0
aF0.0
aF0.0
aF0.0
aF9.11908395e-316
aF0.0
aF0.0
aF0.0
aF0.0
aF0.0
aF0.0
aF0.0
aF0.0
aF0.0
aF0.0
aF0.0
aF0.0
aF0.0
aF0.0
aF4.180456936121802e-125
aF0.0
aF0.0
aF0.007599836855512344
aF0.0
aF0.0
aF0.0
aF1.479627544114547e-39
aF0.0
aF0.0
aF0.0
aF0.0
aF0.0
aF0.0
aF1.7759691410954563e-53
aF0.0
aF0.0
aF0.007599836855512344
aF0.0
aF0.0
aF0.0
aF0.0
aF0.0
aF7.814575597712345e-167
aF1.977007747376387e-283
aF0.0
aF0.0
aF0.0
aF0.0
aF0.0
aF0.0
aF0.0
aF0.0
aF0.0
aF0.0
aF0.0
aF3.221841189973216e-157
aF0.0
aF0.0
aF0.0
aF2.636477371152625e-53
aF0.0
aF0.0
aF0.0
aF8.515930380379777e-36
aF1.4160937237939176e-139
aF0.0
aF0.0
aF0.007599836855512344
aF0.0
aF0.0
aF0.0
aF0.007599836855512344
aF0.0
aF0.0
aF0.0
aF0.0
aF5.103234389727447e-26
aF0.0
aF2.863140905854777e-237
aF0.0
aF0.0
aF9.26120943274218e-180
aF0.0
aF0.0
aF0.007599836855512344
aF0.0
aF0.0
aF0.0
aF0.0
aF0.0
aF2.946240807231697e-72
aF0.0
aF2.0439532179919016e-143
aF2.3048361186381987e-186
aF0.0
aF0.0
aF0.0
aF0.0023976905912734435
aF0.0
aF0.0
aF0.0
aF0.0
aF0.0
aF0.0
aF0.0
aF0.0
aF0.0
aF3.8395680535387174e-203
aF0.0
aF0.0
aF0.0
aF0.0
aF0.0
aF0.0
aF2.9878606709613545e-196
aF3.4234754122602826e-94
aF0.0
aF0.0
aF0.0
aF0.0
aF0.0
aF0.0
aF0.0
aF0.0
aF0.0
aF0.0
aF0.0
aF0.0
aF0.0
aF3.4997060607520484e-77
aF0.0
aF6.953866182788841e-160
aF0.0
aF0.0
aF0.0
aF0.0
aF0.007599836855512344
aF0.0
aF0.0
aF1.113223916772541e-105
aF0.0
aF1.121269362838061e-126
aF0.0
aF0.0
aF0.0
aF0.0
aF0.0
aF0.0
aF0.007599836855512344
aF0.0
aF0.0
aF1.9817775367285427e-162
aF7.349499308468576e-103
aF0.0
aF0.0
aF1.7789755445066146e-242
aF0.0
aF0.0
aF6.036467364197891e-102
aF0.0
aF1.6288064554814067e-124
aF0.007599836855512344
aF0.0
aF0.0
aF4.710738773321994e-309
aF0.0
aF0.0
aF0.0
aF0.0
aF0.0
aF0.0
aa(lp33
F0.0018386778442814828
aF0.0
aF2.572796537760073e-247
aF0.0
aF6.071258775265469e-203
aF0.0
aF0.0
aF0.0
aF0.0
aF0.0
aF0.0
aF0.0
aF0.0
aF0.0
aF0.0
aF0.0
aF0.0
aF1.3562859907188772e-45
aF0.0
aF0.0
aF0.0
aF0.0
aF0.0
aF0.0
aF7.046087840442009e-199
aF0.0
aF0.0
aF0.0
aF0.0
aF0.0
aF0.0
aF0.0
aF0.0
aF0.0
aF0.0
aF1.0152233763242198e-191
aF0.0
aF0.0
aF0.0
aF0.0
aF0.0
aF0.0
aF0.0
aF0.0
aF0.0
aF0.0
aF0.0
aF0.0
aF0.010864462098283068
aF0.0
aF0.0
aF0.0
aF0.0
aF0.0
aF0.0
aF0.0
aF0.0
aF0.0
aF0.0
aF0.0
aF0.00915501988365179
aF0.0
aF5.989217535533853e-74
aF0.0
aF0.0
aF0.0
aF0.0
aF0.0
aF0.0
aF0.0
aF0.0
aF0.0
aF0.010864462098283068
aF0.0
aF0.0
aF0.0
aF2.2154e-320
aF0.010348055606702936
aF0.0
aF0.0
aF0.0
aF0.0
aF0.0
aF0.0
aF0.015316241850078117
aF0.0
aF0.0
aF0.0
aF2.1047479208826113e-19
aF0.0
aF0.0
aF0.010864462098283068
aF0.01086446209806131
aF0.0
aF0.0
aF0.010864462098283068
aF0.0
aF0.0
aF0.0
aF0.0
aF0.0
aF0.0
aF0.010864462098283068
aF0.0
aF0.0
aF0.0
aF0.0
aF0.008044766883547971
aF0.0
aF0.0
aF0.0
aF0.0
aF0.0
aF0.0
aF0.0
aF0.0
aF0.0
aF0.0
aF0.0
aF0.0
aF0.0
aF0.0
aF0.0
aF0.0
aF0.0
aF0.0
aF0.0
aF0.0
aF0.0
aF0.0
aF0.0
aF0.0
aF0.0
aF0.0
aF0.0
aF0.0
aF0.0
aF9.057229924085494e-181
aF0.0
aF0.0
aF0.0
aF0.0
aF0.0
aF0.0
aF0.0
aF0.0
aF0.0
aF0.0
aF0.0
aF0.0
aF0.0
aF0.0
aF0.0
aF0.010864462098283068
aF0.0
aF0.0
aF2.811436903641413e-07
aF0.0
aF0.0
aF0.0
aF0.0
aF0.0
aF0.0
aF0.010864462098283068
aF0.0
aF0.0
aF0.0
aF0.0
aF0.0
aF0.0
aF0.010864462098283068
aF0.0
aF0.0
aF0.010864462098283068
aF0.0
aF0.0
aF0.0
aF0.0
aF0.0
aF0.010732952516525306
aF0.0
aF0.0
aF0.0
aF0.0
aF0.0
aF0.0
aF0.0
aF0.0
aF0.010864462098283068
aF0.0
aF0.010864462098283064
aF0.0
aF0.0
aF0.0
aF0.0
aF0.0
aF0.0
aF0.007148141037188469
aF0.0
aF0.0
aF0.0
aF0.0
aF3.574658608805952e-61
aF0.0
aF1.0315695902565802e-34
aF0.021728924196566135
aF0.0
aF0.0
aF0.009943524770898516
aF4.346318669186415e-172
aF0.0
aF0.0
aF0.0
aF0.0
aF0.0
aF0.0
aF0.0
aF0.0
aF0.0
aF0.0
aF0.0
aF0.0
aF0.0
aF0.0
aF0.0
aF0.010864462098283068
aF0.0
aF0.0
aF0.0
aF0.0
aF0.0
aF0.0
aF0.0
aF0.0
aF0.0
aF0.0
aF0.0
aF0.0
aF0.0
aF0.018302505985823066
aF0.0
aF0.0
aF0.0
aF0.0
aF0.0
aF0.021728924196566135
aF0.0
aF0.010864462098283068
aF3.6771874349048703e-88
aF0.0
aF0.0
aF0.010864462098283068
aF0.0
aF0.0
aF0.0
aF0.0
aF0.0
aF0.0
aF0.0
aF0.0
aF0.0
aF0.0
aF0.0
aF0.0
aF0.0
aF0.0
aF0.0
aF0.0
aF0.0
aF0.0
aF0.0
aF0.0
aF0.0
aF0.0
aF0.0
aF0.010864462098283068
aF0.0
aF0.0
aF0.0
aF0.0
aF0.010864462098283068
aF0.0
aF0.010864462098283068
aF0.0
aF0.0
aF0.0
aF0.0
aF0.0
aF0.0
aF0.0
aF0.0
aF0.0
aF0.0325933862948492
aF0.0
aF0.0
aF0.0
aF0.0
aF0.0
aF0.0
aF0.0
aF0.0
aF0.0
aF0.0
aF0.0
aF0.0
aF0.0
aF0.0
aF0.0
aF0.0
aF0.0
aF0.0
aF0.020231822569660964
aF0.0
aF0.0
aF0.0
aF0.0
aF0.0
aF0.010864462098282634
aF0.01086446209748154
aF0.0
aF0.0
aF0.0
aF0.0
aF0.0
aF2.720004408163856e-49
aF0.0
aF0.0
aF5.229283032381963e-76
aF0.0
aF0.0
aF0.0
aF0.0
aF0.0
aF0.0
aF0.0
aF0.0
aF0.021247208070722164
aF0.0
aF0.0
aF0.0
aF0.0
aF0.0
aF0.0
aF0.0
aF0.0
aF0.0
aF0.021728924196566496
aF0.0
aF0.0
aF0.0
aF0.010864462098283068
aF0.0
aF0.010864462098283068
aF0.0
aF0.0
aF0.0
aF0.0
aF0.0
aF0.0
aF0.0
aF0.0
aF0.0
aF0.010864462098283068
aF0.0
aF0.0
aF0.0
aF0.0
aF0.0
aF0.0
aF0.0
aF0.0
aF0.0
aF0.0
aF0.0
aF0.0
aF0.0
aF0.0
aF0.0
aF0.0
aF0.0
aF0.0
aF0.0
aF0.0
aF0.0
aF0.0
aF0.0
aF0.0
aF0.010864462098283068
aF0.0
aF0.010864462098283068
aF0.0
aF0.0
aF0.010864462098283068
aF0.0
aF0.0
aF0.0
aF0.0
aF0.0
aF0.0
aF0.0
aF0.0
aF0.0
aF0.0
aF0.0
aF0.0
aF0.0
aF0.0
aF0.0
aF0.0
aF0.0
aF0.0
aF0.0
aF0.0
aF0.0
aF0.0
aF0.0
aF0.0
aF0.0
aF0.0
aF0.0
aF0.0
aF0.0
aF0.0
aF0.0
aF0.0
aF0.0
aF0.010683229602056364
aF0.0
aF0.0
aF0.0
aF0.0
aF0.0
aF0.0
aF0.0
aF0.0
aF0.010864462098283068
aF0.0
aF0.0
aF0.010864462098283068
aF0.010864462098283068
aF0.0
aF0.0
aF0.0
aF0.0
aF0.0
aF0.0
aF0.0325933862948492
aF0.0
aF0.0
aF0.0
aF0.0
aF0.0
aF0.010864462098283068
aF0.0
aF3.4950835084649315e-69
aF0.010864462098283068
aF0.010864462098283068
aF0.0
aF0.0
aF0.0
aF0.0
aF0.0
aF0.0
aF0.0
aF0.0
aF0.0
aF0.0
aF2.4664014018075443e-277
aF0.0
aF0.0
aF0.0
aF0.0
aF0.0
aF0.0
aF0.0
aF0.0
aF0.0
aF0.0
aF0.0
aF0.0
aF0.0
aF0.0
aF0.0
aF0.0
aF0.0
aF0.0
aF0.0
aF0.0
aF0.0
aF0.0
aF0.0
aF0.0
aF0.0
aF0.0
aF0.010864462098283068
aF0.0
aF0.0
aF0.0
aF0.0
aF0.0
aF0.0
aF0.0
aF0.0
aF0.0
aF0.0
aF0.0
aF0.0
aF0.0
aF0.0
aF0.010864462098283068
aF0.0
aF0.0
aF0.0
aF0.0
aF0.0
aF0.0
aF0.0
aF0.0
aF0.0
aF0.0
aF0.0
aF0.0
aF1.5378960731192632e-251
aF0.010864462098283068
aF0.0
aF0.0
aF0.0
aF0.0
aF0.0
aF0.0
aF0.010864462098283068
aF0.0
aF0.0
aF0.0
aF0.010864462098283068
aF0.0
aF0.0
aF0.010864462098283068
aF0.0
aF0.0
aF0.0
aF0.0
aF0.010864462098283068
aF0.0
aF0.010864462098283068
aF0.0
aF0.0
aF0.0
aF0.010864462098283068
aF0.0
aF0.0
aF0.0
aF0.0
aF0.0
aF0.0
aF0.0
aF0.0
aF0.0
aF0.0
aF0.0
aF0.010864462098283068
aF0.0
aF0.0
aF0.0
aF0.0
aF0.0
aF0.0
aF0.0
aF0.0
aF0.0
aF0.0
aF0.0
aF0.0
aF0.0
aF0.0
aF0.0
aF0.0
aF0.0
aF0.0
aF0.0
aF0.0
aF0.0
aF0.010864462098283068
aF0.0
aF0.0
aF0.0
aF0.010864462098283068
aF0.0
aF0.0
aF0.010864462098283068
aF0.0
aF0.0
aF0.0
aF0.010864462098283068
aF0.0
aF0.0
aF0.0
aF0.0
aF0.0
aF0.0
aF0.0
aF0.0
aF0.0
aF0.0
aF0.0
aF0.0
aF0.0
aF0.0
aF0.0
aF0.0
aF0.0
aF7.091908262271971e-58
aF0.0
aF0.0
aF0.0
aF0.0
aF0.0
aF0.0
aF0.0
aF0.020443990668408227
aF0.0
aF0.0
aF0.0
aF0.0
aF0.0
aF0.0
aF0.0
aF0.0
aF0.0
aF0.0
aF0.0
aF0.0
aF0.0
aF0.0
aF0.010864462098283068
aF0.0
aF0.0
aF0.0
aF0.0
aF0.0
aF0.0
aF0.021728924196557704
aF0.0
aF0.0
aF0.0
aF0.0
aF0.0
aF0.010864462098283068
aF0.0
aF0.0
aF0.0
aF0.010864462098283068
aF0.0
aF0.0
aF0.0
aF0.0
aF0.0
aF0.0
aF0.0
aF0.0
aF0.0
aF0.0
aF0.0
aF0.0
aF0.0
aF0.010864462098283064
aF0.0
aF0.0
aF0.0
aF0.0
aF0.0
aF0.0
aF0.010864462098283068
aF0.0
aF0.0
aF0.0
aF0.0
aF0.0
aF0.0
aF0.0
aF0.0
aF0.0
aF0.0
aF0.0
aF0.0
aF0.010864462098283068
aF0.0
aF0.0
aF0.0
aF0.0
aF0.010864462098283068
aF0.0
aF0.0
aF0.0
aF0.0
aF0.0
aF0.0
aF0.0
aF0.0
aF0.0
aF0.0
aF0.0
aF0.0
aF0.0
aF0.0
aF0.0
aF0.0
aF0.0
aF0.010864462098283068
aF0.0
aF0.0
aF0.010864462098283068
aF0.0
aF0.0
aF0.0
aF0.0
aF0.0
aF0.0
aF0.0
aF0.0
aF0.0
aF0.0
aF0.0
aF0.0
aF0.0
aF0.0
aF0.010864462098283068
aF0.0
aF0.0
aF0.0
aF0.0
aF0.0
aF0.0
aF0.0
aF0.0
aF0.0
aF0.0
aF2.0414905203187068e-153
aF0.0
aF0.0
aF0.0
aF0.0
aF0.010864462098283068
aF0.0
aF0.0
aF0.0
aF0.010864462098283068
aF0.0
aF0.0
aF0.0
aF0.0
aF0.0
aF0.0
aF0.0
aF0.0
aF0.0
aF0.0
aF0.0
aF0.0
aF0.0
aF0.0
aF0.010864462098283068
aF0.0
aF0.0
aF0.0
aF0.0
aF0.0
aF0.0
aF0.0
aF0.010864462098283068
aF0.0
aF0.010864462098283068
aF0.0
aF0.0
aF0.0
aF0.0
aF0.0
aF0.0
aF0.0
aF0.0
aF0.0
aF0.021728924196566135
aF0.0
aF0.0
aF0.0
aF0.0
aF0.0
aF0.0
aF0.0
aF0.0
aF0.0
aF1.3150719780859379e-63
aF0.0
aF0.0
aF0.0
aF0.0
aF0.0
aF0.0
aF0.0
aF0.0
aF0.0
aa(lp34
F2.1730814352290833e-14
aF4.1565983323883075e-110
aF4.2023898022718955e-220
aF0.0
aF0.0
aF0.0
aF4.8517927924159734e-204
aF0.0
aF9.94104636530675e-27
aF0.0
aF0.0
aF0.0
aF0.0
aF0.0
aF0.0
aF1.0506217895295069e-266
aF0.0
aF0.0
aF0.0
aF0.0
aF0.0
aF0.017448919563952114
aF0.0
aF0.0
aF2.9329662517706234e-216
aF0.0
aF0.0
aF0.0
aF0.0
aF0.0
aF0.0
aF0.0
aF0.0
aF5.570790597254528e-281
aF0.0
aF4.366801930387373e-302
aF0.0
aF0.0
aF0.0
aF0.0
aF0.013598970136484671
aF0.0
aF1.2237321485766559e-172
aF1.26989817224219e-309
aF0.0
aF0.0
aF0.0
aF0.0
aF0.0
aF3.699082169155486e-256
aF0.017962095613324732
aF0.0
aF0.0
aF0.0
aF0.0
aF0.0
aF0.0
aF9.150390615487227e-54
aF0.0
aF0.0
aF0.027836923423217943
aF0.0
aF0.0
aF0.0
aF0.0
aF0.0
aF0.0
aF0.0
aF0.0
aF8.04619359497672e-19
aF0.0
aF0.0
aF1.4765531445084382e-77
aF0.0
aF0.0
aF0.0
aF2.1887707416836934e-30
aF2.628414128052779e-82
aF0.0
aF0.0
aF0.0
aF0.0
aF0.0
aF0.0
aF1.2768502009072035e-52
aF0.0
aF0.0
aF0.0
aF0.0
aF0.0
aF0.0
aF0.0
aF0.0047050964821519665
aF0.0
aF0.0
aF0.0
aF0.0
aF0.0
aF0.0
aF0.0
aF2.693676451498575e-70
aF7.031677042730231e-205
aF0.0
aF0.0
aF0.0
aF4.209868124336023e-262
aF0.0
aF0.08611610430978096
aF0.0
aF0.0
aF0.0
aF0.017962095613324732
aF0.0
aF0.0
aF0.0
aF0.0
aF0.0
aF0.0
aF0.0
aF0.0
aF0.0
aF0.0
aF0.017962095613324732
aF0.0
aF0.0
aF0.0
aF0.0
aF0.0
aF0.00377850843853572
aF0.0
aF0.0
aF0.0
aF0.0
aF0.0
aF0.0
aF1.1064730957015261e-195
aF1.5741216470034178e-17
aF0.0
aF1.5201990238836409e-09
aF0.0
aF0.0
aF0.0
aF2.65271e-318
aF0.0
aF0.0
aF5.899822375714759e-179
aF0.0
aF2.133692799377661e-202
aF0.0
aF0.0
aF0.0
aF0.0
aF0.0
aF2.903693569253151e-231
aF0.03452845544132702
aF0.0
aF3.1574435212841867e-29
aF0.0
aF0.0
aF0.0
aF0.0
aF3.605157715619129e-46
aF1.61358660983015e-75
aF8.132831963356685e-268
aF0.0
aF0.0
aF0.0
aF0.0
aF0.0
aF0.0
aF5.284838644697678e-123
aF0.0
aF0.0
aF0.0
aF0.0
aF0.03499271260463535
aF1.800541608581677e-28
aF0.0
aF0.0
aF0.018179518957456474
aF1.658172561379976e-275
aF0.0
aF0.0
aF0.0
aF0.0
aF0.0
aF0.0
aF0.0
aF0.0
aF0.0
aF0.0
aF0.0
aF0.0
aF0.0
aF0.0
aF0.0
aF0.0
aF0.0
aF0.0
aF0.0
aF0.0
aF0.017962095613324732
aF0.0
aF7.218382958194742e-08
aF0.02306899628445785
aF0.0
aF0.02928827600318023
aF0.0
aF0.0
aF0.0
aF0.0
aF0.017743467905865208
aF0.0
aF0.0
aF0.0
aF0.0
aF0.0
aF0.0
aF0.0
aF0.0
aF0.0
aF0.0
aF0.0
aF0.0
aF0.0
aF0.0
aF0.0
aF0.0
aF0.0
aF0.0
aF0.0
aF0.0
aF0.0
aF2.694193768971167e-32
aF0.0
aF0.0
aF0.0
aF0.0
aF0.0
aF0.019776647503493956
aF1.75851541730117e-161
aF0.0
aF8.276284437192188e-26
aF0.0
aF0.0
aF0.0
aF0.0
aF0.0
aF1.0088876853838322e-226
aF0.0
aF0.0
aF0.0
aF0.0
aF0.0
aF0.0
aF0.0
aF0.0
aF0.0
aF3.0722996735230937e-90
aF0.0
aF0.0
aF0.0
aF0.0
aF0.0
aF0.0
aF0.0
aF7.017069688814943e-177
aF0.0
aF0.0
aF2.55278547767726e-53
aF0.0
aF0.0
aF2.4112319925367027e-182
aF0.0
aF0.0
aF0.0
aF0.0
aF0.0
aF0.0
aF0.0
aF0.0
aF0.0
aF0.0
aF0.0
aF2.0729181380758131e-162
aF0.0
aF0.0
aF1.3416938268732678e-13
aF0.0
aF0.0
aF0.0
aF0.0
aF1.6634314979363619e-96
aF3.667697802964603e-19
aF0.0
aF0.0
aF0.0
aF0.0
aF0.0
aF0.0
aF0.0
aF0.0
aF0.0
aF0.0
aF0.0
aF0.0
aF2.4653552665186468e-21
aF0.0
aF0.0
aF0.0
aF0.0
aF4.655769168239356e-185
aF0.0
aF0.0
aF0.0
aF0.0
aF0.0
aF0.0
aF0.0
aF0.0
aF0.017962064627580522
aF0.0
aF0.0
aF0.0
aF0.0
aF0.0
aF0.0
aF0.017962095613324732
aF0.0
aF0.0
aF1.9853270155279477e-40
aF0.0
aF0.0
aF0.0
aF2.0149007464123918e-299
aF0.0
aF8.173059689462364e-23
aF0.0
aF0.0
aF0.0
aF0.0
aF0.017924194673836803
aF0.017962095613324732
aF0.0
aF0.0
aF0.0
aF0.0
aF0.0
aF0.0
aF0.0
aF0.0
aF0.0
aF0.0
aF0.007339400113149708
aF0.0
aF0.0
aF0.008486591397675807
aF0.0
aF0.0
aF0.0
aF0.0
aF0.0
aF4.4993008935019816e-35
aF0.0
aF0.0
aF0.017962095613324732
aF1.8601844388064467e-286
aF0.0
aF0.0
aF0.0
aF0.0
aF0.0
aF0.0
aF0.0
aF0.01790930835949741
aF0.017962095613324732
aF0.0
aF0.0
aF0.0
aF0.017962095613324732
aF0.0
aF0.0
aF0.0
aF0.0
aF0.0
aF0.017962095613324732
aF0.0
aF0.0
aF0.0
aF0.0
aF0.0
aF0.0
aF0.017962095613324732
aF0.0
aF0.0
aF0.017962095613324732
aF0.0
aF0.0
aF0.017962095613324146
aF0.0
aF0.0
aF0.0
aF1.940322392226573e-243
aF0.017962095613324732
aF0.0
aF0.0
aF0.0
aF0.0
aF0.0
aF0.0
aF0.0
aF0.0
aF0.017962095613324732
aF0.0
aF0.0
aF0.035717719358349914
aF0.0
aF0.0
aF0.0
aF0.0
aF0.0
aF0.0
aF0.0
aF0.0
aF0.0
aF0.0
aF7.726526724653615e-61
aF0.0
aF0.0
aF0.0
aF0.0
aF0.0
aF0.0
aF0.0
aF0.0
aF0.0
aF0.0
aF2.1567957297869958e-64
aF0.0
aF0.0
aF0.0
aF0.0
aF0.0
aF0.0
aF0.0
aF0.0
aF0.0
aF0.0
aF0.0
aF0.0
aF0.0
aF0.0
aF0.0
aF0.0
aF0.0
aF2.6514986851121806e-66
aF0.0
aF0.0
aF0.0
aF0.0
aF0.035924191226649464
aF0.0
aF0.0
aF0.0
aF0.0
aF0.0
aF0.0
aF1.0141762396850685e-224
aF0.0
aF0.0
aF0.0
aF5.777523191125357e-89
aF0.0
aF0.0
aF0.0
aF0.0
aF0.0
aF0.017962095613324732
aF0.0
aF0.0
aF0.0
aF0.0
aF0.0
aF0.0
aF0.0
aF0.0
aF0.0
aF0.0
aF0.017962095613324732
aF0.0
aF0.0
aF0.0
aF0.0
aF0.0
aF0.0
aF0.0
aF0.0
aF0.0
aF0.017962095613324732
aF0.0
aF0.0
aF0.0
aF0.017962095613324732
aF0.0
aF0.0
aF0.0
aF0.0
aF0.0
aF0.0
aF1.5277389463437045e-99
aF0.0
aF0.0
aF0.017962095613324732
aF0.0
aF0.0
aF0.0
aF0.0
aF0.0
aF0.0
aF0.0
aF0.0
aF0.0
aF0.017962095613324732
aF8.855221976052901e-130
aF0.0
aF0.0
aF0.0
aF1.2928564822456316e-92
aF0.0
aF0.0
aF0.0
aF0.0
aF0.0
aF0.0
aF0.0
aF0.0
aF0.0
aF3.649266456183606e-82
aF0.0
aF0.0
aF0.0
aF0.0
aF0.0
aF0.0
aF2.8283698934313212e-99
aF0.0
aF0.0
aF0.0
aF0.0
aF0.0
aF0.0
aF0.0
aF0.0
aF0.0
aF0.01796209552842545
aF0.0
aF0.0
aF0.0
aF0.017961805059165822
aF0.0
aF0.0
aF0.0
aF0.0
aF5.759701609885304e-149
aF0.0
aF0.0
aF0.0
aF0.0
aF0.0
aF0.0
aF0.0
aF0.0
aF0.0
aF0.017962095613324732
aF0.0
aF0.0
aF0.0
aF0.0
aF0.0
aF0.0
aF0.0
aF0.0
aF0.0
aF0.0
aF0.0
aF0.0
aF0.0
aF0.0
aF0.0
aF0.0
aF0.0
aF0.0172591190644288
aF0.0
aF1.0510814099286115e-83
aF3.150734618188461e-92
aF0.0
aF0.0
aF0.0
aF0.0
aF0.0
aF0.0
aF0.0
aF0.0
aF0.0
aF0.0
aF0.0
aF0.0
aF0.0
aF0.0
aF0.0
aF0.0
aF0.017845471836845494
aF0.0
aF0.0
aF0.0
aF0.0
aF0.0
aF0.0
aF0.0
aF0.0
aF4.5871958395208434e-234
aF0.0
aF0.0
aF1.5410236094812233e-194
aF0.0
aF0.0
aF0.0
aF0.0
aF0.0
aF0.0
aF0.0
aF0.0
aF0.0
aF0.0
aF4.497575981385188e-96
aF0.0
aF0.0
aF0.0
aF0.0
aF0.0
aF0.0
aF0.0
aF0.0
aF0.0
aF0.0
aF0.0
aF0.0
aF0.0
aF0.0
aF0.0
aF0.0
aF0.0
aF0.0
aF0.0
aF0.0
aF0.0
aF1.0440680573166281e-138
aF0.0
aF0.0
aF0.0
aF0.0
aF0.0
aF0.0
aF0.017962095613324732
aF0.0
aF0.0
aF0.0
aF0.0
aF0.0
aF0.0
aF0.0
aF0.0
aF0.0
aF0.0
aF0.0
aF0.0
aF0.0
aF0.0
aF0.0
aF0.0
aF5.523135539126586e-170
aF0.0
aF0.0
aF0.0
aF0.0
aF4.0297082418358945e-128
aF0.0
aF0.0
aF0.0
aF0.007593587355487736
aF1.939246073132083e-126
aF0.0
aF0.0
aF0.0
aF0.017962095613324732
aF0.0
aF0.0
aF0.0
aF0.0
aF0.0
aF0.0
aF0.0
aF0.0
aF0.0
aF0.0
aF0.0
aF0.01796148592038993
aF0.0
aF1.2412991216846855e-178
aF0.0
aF0.0
aF4.067844663221261e-62
aF0.0
aF0.0
aF0.0
aF0.0
aF0.0
aF0.0
aF0.0
aF0.0
aF3.936290322692563e-64
aF0.0
aF0.0
aF0.0
aF0.0
aF0.0
aF0.0
aF0.0
aF0.0
aF0.0
aF0.0
aF0.0
aF0.0
aF0.0
aF0.0
aF1.6086478199523396e-144
aF0.0
aF4.199140104583018e-153
aF0.0
aF0.0
aF0.0
aF0.0
aF0.0
aF0.0
aF0.0
aF3.937677109552186e-21
aF0.0
aF0.0
aF0.0
aF3.989619348322412e-239
aF0.0
aF0.0
aF0.0
aF0.0
aF0.0
aF5.541576742511646e-149
aF0.0
aF0.0
aF0.0
aF0.0
aF0.0
aF0.0
aF0.0
aF0.0
aF0.0
aF0.0
aF0.0
aF0.0
aF0.0
aF1.5169252853505415e-127
aF0.0
aF4.662645141593955e-74
aF0.0
aF0.0
aF0.0
aF0.0
aF0.0
aF0.0
aF0.0
aF0.0
aF0.0
aF0.0
aF0.0
aF0.0
aF0.0
aF0.0
aF0.0
aF0.0
aF0.0
aF0.0
aF0.0
aF0.0
aF0.0
aF0.0
aF0.0
aF0.0
aF0.0
aF0.0
aF0.0
aF0.0
aF0.0
aa(lp35
F0.0033395841708769376
aF4.2425987268201167e-50
aF4.905143860699557e-33
aF0.0
aF0.012320318988724726
aF0.011267623402502699
aF0.006158496435138982
aF2.4019262324087193e-40
aF1.3037649838864088e-95
aF1.7086441690240828e-66
aF3.7851151007757055e-81
aF8.879542441349409e-109
aF0.0
aF0.0030234553355967106
aF8.123560580215038e-145
aF8.225391344748848e-89
aF1.4332544782366183e-210
aF2.54813090943962e-234
aF0.028997467436017145
aF1.1695414917635536e-158
aF0.0
aF3.624623437274083e-171
aF5.621095918335914e-181
aF0.0
aF8.157834243271532e-93
aF0.0
aF0.0
aF4.98972955123256e-309
aF2.537893333048554e-31
aF0.0030234901087194265
aF1.0432398328888546e-41
aF0.0030234553355968107
aF4.999083080933851e-45
aF2.4064376395134586e-135
aF0.06258924993941517
aF4.699190570762621e-126
aF0.0
aF0.0030234553355967106
aF1.9742790852334923e-111
aF2.0460744168617357e-176
aF0.0030206892740380926
aF0.0
aF8.531454332279027e-125
aF0.027201646279808228
aF0.0
aF0.0
aF0.0
aF0.012093821211611653
aF0.0
aF0.04495350198945024
aF2.6340663362066618e-76
aF0.0
aF2.9033627730152193e-154
aF4.984644142633665e-281
aF0.0
aF0.0
aF0.005936264718079612
aF7.472112863969315e-54
aF0.0
aF2.8958161144269246e-115
aF3.3724354019895456e-79
aF5.607130771544e-197
aF0.015346310283928985
aF0.0
aF3.2397509770416195e-162
aF1.906898758435536e-51
aF0.0
aF0.0
aF0.0030234553355967106
aF1.4133020822172363e-181
aF1.0052132151409924e-212
aF0.0
aF4.185218853740188e-96
aF0.012687939298240115
aF0.0
aF0.021165271635414686
aF1.871988062921972e-98
aF1.3939522896006214e-231
aF4.1418984109431603e-35
aF0.0
aF1.9294432017906031e-90
aF5.587155712115627e-144
aF0.0
aF0.0
aF8.49509300938801e-128
aF0.0
aF0.0
aF1.2841207178009916e-166
aF3.7594769825833396e-158
aF0.0030234553355967106
aF0.0
aF0.0
aF2.531783421508713e-174
aF0.0
aF1.4522255031308106e-181
aF0.0
aF0.0
aF0.01769923930649594
aF3.51349281749854e-137
aF0.0
aF9.15505744310588e-83
aF0.0
aF0.0
aF0.0
aF0.0
aF7.827922293066048e-127
aF0.0030234553355967106
aF0.016160695452133986
aF0.0030254959031353985
aF1.1525916936459414e-136
aF0.0034708121076903907
aF2.9756790768729272e-176
aF0.0
aF1.4516473358373677e-110
aF0.0029702596267070338
aF0.0
aF0.0
aF4.5132392976163065e-101
aF0.0
aF0.0
aF0.0
aF0.0
aF1.3829097510895287e-81
aF2.713238975421112e-258
aF1.6982078910696051e-90
aF0.0030234553355967106
aF0.0
aF7.024485262729793e-134
aF3.252780104103325e-166
aF0.0
aF0.009261238289714582
aF2.825465631321494e-124
aF1.6997983759735009e-162
aF0.0
aF9.139818537905997e-110
aF8.869456485482779e-240
aF0.04203534362203709
aF0.07032181386474742
aF0.015015622571636427
aF0.0
aF0.0
aF3.1606221296667465e-21
aF0.0030769583367525805
aF1.0539551310869375e-75
aF1.3970974342127103e-161
aF8.65170433181565e-211
aF0.0
aF0.16241293063374676
aF0.0
aF9.371352595844068e-49
aF0.0
aF0.0
aF0.041394943272118324
aF0.0
aF8.17663841803037e-10
aF6.334994211196475e-114
aF2.1545938348501765e-128
aF0.0
aF0.0
aF0.02242767828734516
aF0.0
aF4.628659486730096e-149
aF3.02652828621222e-107
aF0.0
aF0.0
aF0.0
aF0.0
aF0.0
aF0.0
aF5.390190684783126e-83
aF1.158218639047808e-287
aF0.0
aF5.551256192748123e-102
aF0.005524001108006068
aF0.0
aF0.0030471253563739246
aF6.6159179533952994e-161
aF0.0
aF0.0
aF4.1660969312192085e-88
aF0.0
aF0.006046910671193421
aF6.451167886073988e-132
aF0.0068898229456968735
aF0.0
aF0.0
aF0.0
aF2.125957724271248e-72
aF0.0030234553355967106
aF0.0
aF3.4923545036274224e-104
aF0.0
aF0.0019507373416771264
aF0.0
aF0.0
aF0.0
aF5.793257046986543e-129
aF0.0
aF0.0
aF0.0
aF2.0756196038814508e-172
aF8.188784402664902e-175
aF4.994037797536223e-216
aF1.832630379494071e-98
aF2.077646083467924e-19
aF0.0
aF7.053131664006346e-93
aF8.905773356482195e-112
aF0.0
aF7.327348877595345e-104
aF0.0
aF1.7215002801673737e-76
aF8.6117371353599405e-78
aF0.0030234553355967106
aF0.0
aF5.551003056588981e-230
aF0.0
aF0.0
aF0.0030234553355967106
aF0.0
aF3.6407573456876635e-82
aF0.0
aF0.0
aF0.0
aF0.0
aF0.0
aF7.1177119251801e-103
aF0.0029856116977974613
aF0.017799334138256646
aF0.0
aF0.0030234553355967106
aF0.0
aF1.347695787629976e-102
aF4.140724371125075e-55
aF1.017033366054406e-285
aF0.0
aF0.0
aF1.0987299432334627e-299
aF0.015117276677983554
aF0.0036714518964906886
aF5.4885757959635054e-257
aF0.0
aF9.129347194837814e-59
aF4.113566495935288e-89
aF0.0
aF0.0
aF2.3880193955890336e-229
aF0.0
aF0.0
aF0.0
aF0.0
aF0.0
aF0.0
aF0.0
aF0.0030234553355967106
aF0.0
aF0.0
aF0.0
aF2.760965859903811e-153
aF0.0
aF0.0
aF0.0
aF0.0
aF0.0
aF8.356064686737036e-37
aF0.0
aF5.278430205643936e-20
aF0.0
aF0.0
aF2.1517974616670176e-118
aF0.0
aF0.0
aF1.5693108659714897e-176
aF0.0030231180808474364
aF0.0
aF3.696298911243221e-129
aF1.0640541430663843e-141
aF0.0
aF0.0
aF3.158289756645488e-104
aF0.0
aF0.0
aF0.0
aF0.0
aF0.0
aF0.0
aF0.0
aF9.704202325826858e-86
aF0.0
aF0.0
aF0.0030234553355967106
aF0.0
aF1.6299897462181352e-173
aF2.1834476326252093e-91
aF0.0
aF4.780096126142993e-176
aF0.0
aF0.0
aF0.0
aF0.0
aF0.0
aF0.0
aF1.6378248680389541e-71
aF0.0
aF0.006046910671193336
aF1.1572805901828123e-204
aF2.911159067073282e-36
aF3.000655898218916e-142
aF0.0
aF0.0
aF1.5300998996786647e-74
aF0.004118261523004565
aF0.0
aF0.024187642684773684
aF0.0
aF0.0
aF4.584700708095633e-199
aF1.595225209300261e-137
aF0.0
aF0.0
aF5.215650538013005e-09
aF6.845743730925072e-144
aF0.0
aF3.893098718877945e-46
aF0.0
aF0.0
aF7.350699553804052e-142
aF4.134246729078781e-82
aF0.0030234553355967106
aF0.0
aF7.86759372580108e-99
aF0.0
aF6.289343273900403e-55
aF0.0
aF1.8947924610105726e-159
aF1.0853023329101238e-151
aF0.003254156529262066
aF0.0
aF1.9779119220163533e-135
aF0.0
aF0.0
aF1.5638248815879726e-58
aF1.9965570159976722e-74
aF0.0
aF0.0
aF0.0
aF0.0
aF0.0
aF0.0
aF0.0
aF0.0
aF7.05681854851188e-160
aF0.0
aF9.43509017386189e-66
aF0.0
aF0.0
aF7.564161101299158e-176
aF0.0
aF0.0
aF1.0641655637227474e-57
aF4.867343906678658e-145
aF7.23723786451151e-55
aF7.162155958742692e-164
aF0.0
aF0.0030234553355967106
aF2.0443406302299898e-176
aF0.0030234553355967106
aF0.0
aF0.0
aF0.0
aF4.543050388524582e-45
aF1.8987436448872326e-142
aF0.0
aF0.0030234553355967106
aF5.058009858801799e-73
aF3.060787965429284e-175
aF0.0
aF0.0
aF0.0
aF2.0962189820824559e-175
aF0.0
aF7.747051801697234e-194
aF0.0030234553355967106
aF0.0
aF0.0030234553355967106
aF1.742594709658171e-72
aF0.0
aF0.0
aF0.0
aF0.0
aF0.0
aF0.0
aF1.9225930357862793e-176
aF0.0
aF0.0
aF1.5398159930994824e-175
aF0.0
aF2.549585676561603e-268
aF6.616775470312818e-175
aF0.0
aF4.03392041292166e-48
aF5.6182663798710225e-43
aF0.0030234553355967106
aF4.018670823056974e-175
aF0.0
aF1.4908564088487362e-57
aF0.0
aF0.0
aF0.0
aF0.0030234553355967106
aF3.674323835461438e-241
aF0.0
aF2.589451249521153e-176
aF0.0
aF0.0
aF1.1404611265381648e-65
aF0.0030234553355967106
aF4.2839995690618593e-147
aF4.528738151227901e-117
aF0.0
aF0.0
aF0.0
aF0.0
aF0.0
aF1.817543350677878e-270
aF0.0
aF1.6539003551634502e-72
aF6.764941599952673e-142
aF0.0
aF0.0
aF0.0
aF0.0
aF0.0
aF0.0
aF0.0
aF0.0
aF5.536842290279138e-144
aF2.6593882697925686e-125
aF0.0
aF0.0
aF5.274082284975104e-210
aF0.0
aF0.0030234553355967106
aF0.0
aF0.0
aF0.0
aF8.31429814694909e-203
aF0.0
aF0.009070366006790133
aF0.0
aF0.0
aF0.0030234553355967106
aF0.0
aF0.0
aF2.762532471504879e-200
aF1.5676262890739097e-139
aF0.0
aF0.0
aF0.002968903691402002
aF0.0
aF1.8685359326005107e-195
aF0.0
aF0.0
aF0.0
aF0.0030234553355967106
aF0.0
aF0.0
aF2.33543857502203e-304
aF0.0
aF1.9468453602059325e-34
aF2.497366685208869e-259
aF3.380040290852844e-149
aF0.0
aF0.0
aF0.0
aF0.0030234553355967106
aF8.656395170166536e-145
aF4.206679361399409e-170
aF0.0
aF0.0
aF0.0030234553355967106
aF1.796495398176824e-145
aF0.0
aF5.175733726076844e-111
aF0.0
aF0.0
aF0.0
aF0.0
aF3.793883242581219e-175
aF0.0
aF0.0
aF0.005406089068920822
aF0.0
aF0.0
aF0.0
aF0.0
aF0.0
aF0.0
aF1.0420678369717467e-76
aF0.0
aF0.0
aF0.0
aF6.13327508215012e-57
aF0.0
aF0.0
aF0.0
aF1.4241597972640163e-164
aF2.4990904751073363e-180
aF0.0
aF3.8571567820253694e-66
aF0.0
aF0.0
aF1.3891370210972217e-156
aF0.0
aF0.0
aF0.0
aF4.529244342767416e-186
aF0.0
aF0.0
aF0.0
aF0.0
aF0.0
aF1.4699393594433371e-177
aF7.445160763475617e-304
aF0.0
aF0.0
aF1.3807644086097768e-186
aF0.0
aF0.0
aF0.0
aF0.0
aF0.0
aF0.0030234553355967106
aF0.0
aF0.0
aF0.0
aF5.188172887157973e-137
aF5.302173524614265e-167
aF0.0
aF0.0
aF0.0
aF0.0
aF0.0
aF0.0
aF5.182223639748898e-268
aF0.0
aF0.0
aF7.579968758909632e-222
aF9.194844076463016e-129
aF0.0
aF0.0030234553355967106
aF0.0
aF3.3622409278531505e-97
aF1.2458733983333439e-219
aF1.5887287437158494e-65
aF7.790865751365357e-141
aF0.0
aF0.0030234553355967106
aF6.6053983268163585e-65
aF0.0029927419025851847
aF0.0
aF8.659879930841426e-196
aF0.006046910671193421
aF1.949120711557841e-130
aF0.0
aF0.0
aF0.0
aF0.0
aF0.0
aF0.0
aF0.0
aF9.426942144451572e-246
aF0.0
aF1.6887819013873402e-175
aF5.417724356123083e-79
aF3.4137102360778385e-239
aF0.0
aF0.0
aF0.0
aF0.0
aF0.0
aF0.0
aF6.396187385515932e-44
aF0.0
aF0.0
aF0.0030234553355967106
aF0.0
aF0.0
aF0.0
aF0.0
aF0.0
aF3.202871024990183e-175
aF0.0030234553355967106
aF3.0352370910359023e-256
aF0.0
aF0.0030234553355967106
aF0.0
aF0.0030234553355967106
aF0.0
aF3.7700878082829714e-259
aF0.0
aF0.0
aF0.0
aF2.8246776062507645e-118
aF0.0
aF0.0
aF0.0
aF0.0
aF0.0
aF0.0
aF0.0030234553355967106
aF1.9602301185366142e-176
aF0.0
aF0.0
aF0.0
aF0.0
aF0.0
aF0.0
aF0.0
aF7.02722734549511e-167
aF9.130193824349162e-206
aF0.0
aF0.0030236868222951107
aF0.0
aF0.0
aF0.0
aF0.0
aF3.7879936280064295e-48
aF0.0
aF0.0
aF0.0
aF0.0
aF0.0
aF0.0
aF1.5002904469123807e-58
aF8.943938058313608e-20
aF0.0
aF0.0030234553355967106
aF0.0
aF0.0
aF0.0030234553355967106
aF1.122784688063655e-32
aF0.0
aF0.006046910671193421
aF3.87775786351818e-36
aF2.72369559194101e-143
aF0.0
aF0.0030234553355967106
aF0.0
aF1.0138926346391736e-128
aF0.0
aF0.0
aF0.0
aF4.3396729705738407e-82
aF0.0
aF0.0
aF1.9719506390987621e-122
aF0.0
aF3.104865825656677e-169
aF0.0
aF0.0
aF0.0030234553355967106
aF8.111021994208753e-276
aF1.8745366155345625e-174
aF0.0
aF0.0
aF0.0
aF0.0030234553355967106
aF0.0
aF0.0030234553355967106
aF0.0
aF0.0
aF0.0
aF0.0
aF0.0
aF0.0030234553355967106
aF0.0
aF0.0
aF0.0
aF1.5543710467991203e-243
aF0.0
aF0.0
aF0.0
aF0.0030234553355967106
aF0.0
aF4.979594544664869e-301
aF0.0
aF0.0
aF0.0030234553355967106
aF6.569530609086376e-169
aF1.1087294408101752e-205
aF0.0
aF0.0030234553355967106
aF0.0030234553355967106
aF2.628053116780978e-106
aF0.0
aF0.0030234553355967106
aF0.0
aF0.0
aF0.0
aF0.0
aF7.492663375771823e-41
aF0.0
aF0.0
aF0.0
aF0.0
aF3.3758738098082986e-65
aF0.0
aF0.0
aF0.0
aF0.0
aF1.3028865246996717e-137
aF0.0
aF0.0
aF5.764798003671296e-49
aF0.0
aF0.0
aF2.4556122416735847e-52
aF0.0
aF0.0
aF1.9546279083773451e-233
aF0.0
aF0.0030234553355967106
aF0.0030234525633154674
aF0.0
aF1.4035868658017208e-144
aF0.0
aF2.511933819899024e-167
aF0.0
aF6.886292823227385e-174
aF0.0
aF0.0
aF0.0030234553355967106
aF0.006046910671193421
aF0.0
aF0.0
aF0.0
aF1.3491651032628933e-296
aF0.0
aF0.0
aF0.0
aF0.0
aF0.0
aF1.2869627679782439e-207
aF0.0
aF5.306822861526866e-98
aF5.3248872522668695e-86
aF0.0
aF0.0
aF0.0030234553355967106
aF0.0030234553355967106
aF0.0
aF0.0
aF0.0
aF0.0
aF0.0
aF0.0
aF0.0
aF0.0
aF2.8093939465786377e-229
aF0.0
aF0.0
aF0.0
aF0.0
aF0.0
aF0.0
aF9.241300533335043e-243
aF0.009070366006790133
aF0.0
aF9.396656197638116e-111
aF1.6414057805601858e-170
aF8.479473550919868e-247
aF0.0
aF0.0
aF0.0
aF0.0
aF0.0030234553355967106
aF0.0
aF2.409764212460706e-79
aF0.0
aF0.0
aF0.0
aF0.0
aF0.0
aF0.0
aF0.0030234553355967106
aF0.0
aF0.0
aF0.0
aF1.8670051108488027e-289
aF2.86464011376148e-83
aF0.0
aF1.5903701660883303e-126
aF0.0
aF0.0
aF0.0
aF0.0
aF0.0
aF0.0
aF0.0030234553355967106
aF0.0
aa(lp36
F2.1668600924788507e-62
aF0.0
aF0.007054030166887166
aF1.315081940400593e-151
aF0.005214706220900033
aF1.0642665364780922e-114
aF0.04504215508065451
aF0.0
aF0.05386939256629209
aF1.4087493564218451e-06
aF9.033874468128958e-61
aF1.1773591223348802e-162
aF0.0
aF0.0
aF0.0
aF1.7368997573155957e-174
aF2.9282925980999462e-39
aF6.384637562798033e-23
aF0.12971220177306989
aF1.715849169831515e-65
aF1.2505304273217165e-209
aF0.010602065422105759
aF3.287666040445358e-177
aF0.005150791094264255
aF4.585089397296855e-37
aF0.0
aF0.0
aF0.010452748211364295
aF0.005458495789814083
aF5.675966697918883e-76
aF0.005999486535693209
aF0.0
aF0.03135815907387726
aF1.3001513242241175e-53
aF5.069185001326559e-117
aF1.354437416921831e-202
aF0.0
aF0.0
aF0.0
aF0.00473332509776035
aF2.7027199095518766e-62
aF0.0
aF5.987071043312074e-35
aF0.0052427124756752016
aF0.0
aF0.0
aF0.0
aF7.021377268827862e-118
aF0.0
aF1.0282258383251671e-145
aF3.7989977704821624e-168
aF8.350305698729421e-182
aF3.1825721632389596e-36
aF0.0
aF0.0
aF0.0
aF0.0055171526627167695
aF0.01555726341443454
aF1.3880268855409604e-236
aF0.016725976979816044
aF0.0057536755064105825
aF1.0681395812715868e-172
aF2.9843608405963835e-89
aF0.0
aF2.2300480106398163e-255
aF9.904413731741214e-10
aF0.005226374105682148
aF0.0
aF0.0
aF3.894854291116078e-143
aF0.005226374105682148
aF0.0
aF1.0818148070421622e-121
aF1.5546007081518068e-70
aF0.0
aF1.8346603935455868e-125
aF0.014815977902389919
aF4.288127809364727e-183
aF1.1196489620965239e-101
aF0.0
aF1.1392612940807281e-117
aF0.0
aF0.0
aF0.0
aF0.011677373038962635
aF0.0
aF0.005226374105682148
aF0.0
aF1.372334922262987e-188
aF0.0
aF0.0
aF0.0
aF1.1131541896597896e-98
aF3.874368076436709e-299
aF2.099961580324302e-259
aF0.0
aF0.0
aF1.7240776820606932e-16
aF0.01567912231704644
aF0.0
aF0.03046764951093124
aF0.0
aF0.0
aF0.0
aF0.0
aF0.0
aF0.0
aF2.849804366103019e-20
aF9.513317745413846e-242
aF0.0
aF1.2838422906712368e-106
aF7.594906660223079e-152
aF0.0
aF3.453523119358427e-153
aF0.0054865536417606
aF0.0
aF0.0
aF3.329134234896527e-182
aF8.12662662337294e-225
aF1.426807543676134e-187
aF0.0
aF0.0
aF4.048544042931308e-135
aF7.981209078772674e-243
aF1.0279965164693814e-18
aF0.0
aF0.0
aF4.187502949806317e-42
aF7.906538752924923e-21
aF0.0
aF6.582637427725921e-36
aF0.03818610116716012
aF6.068044446489754e-244
aF0.0
aF0.0042210320053879995
aF5.812025954746995e-268
aF1.1718256649037895e-16
aF2.2159774849744014e-61
aF5.279049638347506e-29
aF0.0
aF0.0
aF5.440511246014246e-107
aF0.0
aF0.008037601527448675
aF0.0
aF5.4876437741208304e-21
aF0.0
aF1.2095571793485884e-83
aF1.7223486504224283e-88
aF3.842486310030572e-29
aF1.3866075092581346e-261
aF0.0
aF0.016064057607751283
aF0.0
aF0.02131160783287817
aF0.0
aF1.4711620311836585e-113
aF0.0
aF6.635653911824698e-154
aF8.307026460086619e-24
aF0.0
aF0.015272377027058116
aF0.016615200268447462
aF1.5682282530470758e-283
aF0.0
aF0.0
aF0.0
aF0.0
aF0.005226374105682146
aF0.0
aF1.0665556168433656e-125
aF0.00522637406295695
aF9.221512799105774e-127
aF1.98428285218686e-116
aF0.0
aF2.4761821325361136e-136
aF1.4307922424143847e-118
aF0.02090549642272859
aF0.0
aF7.374574490667538e-107
aF0.0
aF0.0
aF3.841771670621216e-143
aF2.2530548218285408e-164
aF1.922386529750604e-196
aF0.0
aF0.0
aF3.015056473957365e-93
aF0.0
aF0.0
aF0.005226374105682149
aF1.1950155594826325e-299
aF1.7430847232518728e-60
aF5.328778282048001e-42
aF0.005226374105682148
aF0.0
aF0.0
aF0.005067574585858722
aF4.878612610726395e-142
aF0.01551218361699274
aF1.2499641725255645e-171
aF1.2624814435509835e-149
aF0.0
aF1.4413798984282156e-39
aF3.903935546856892e-47
aF1.3021876683267695e-100
aF2.022485847367139e-147
aF0.0
aF0.0
aF7.046241757871923e-70
aF0.0
aF8.892590347174783e-143
aF2.359586467717658e-138
aF0.0
aF0.0
aF1.770057769729323e-213
aF4.6752059310003306e-170
aF0.0
aF0.0
aF0.0
aF6.530375133627214e-200
aF0.005401043248892228
aF0.0
aF0.0
aF0.0
aF3.859578359053728e-53
aF3.0727920824609945e-145
aF7.342057375001582e-109
aF0.015970661376856897
aF0.0
aF0.005226374105682148
aF0.0
aF2.8711068590672734e-70
aF1.01145480428031e-111
aF8.936730711865656e-208
aF5.525919058217016e-163
aF0.0
aF0.0
aF0.0
aF4.9427557146107525e-56
aF2.8897854643389517e-39
aF0.0
aF1.784142285390312e-49
aF3.2348816525196965e-144
aF0.0
aF0.0
aF0.0
aF0.0
aF5.909175781340173e-245
aF0.005226374105682148
aF1.5533478132257835e-213
aF7.045791038321668e-215
aF0.0
aF0.0
aF0.0
aF4.991308729870809e-222
aF1.699628845669471e-67
aF0.00522624408162943
aF2.4174469766527398e-59
aF0.0
aF0.0
aF0.0
aF8.829940620519762e-172
aF1.6844078532117409e-77
aF2.7535135701839995e-120
aF0.005226374105682148
aF7.795686942874548e-82
aF0.005226374105682148
aF6.511073952279507e-145
aF1.1498715579748244e-82
aF0.0
aF0.010447175351301222
aF0.0
aF9.558004192111265e-149
aF4.883545255717542e-162
aF4.834899011436497e-170
aF2.2988192296382586e-20
aF0.0
aF0.0
aF0.005226374105682148
aF0.0
aF0.0
aF0.0
aF0.0
aF0.0
aF0.0
aF0.0
aF9.487022989511404e-146
aF4.014453510634311e-66
aF0.01567912231704644
aF0.0
aF0.0
aF1.3363824368866617e-146
aF1.2290698209378137e-111
aF5.0645766580892773e-54
aF1.0503587220602982e-217
aF0.0
aF0.0
aF0.0
aF0.0
aF0.0
aF3.031984260568937e-134
aF9.171766215100964e-115
aF1.3561158768366166e-162
aF0.0
aF2.1238711557205828e-234
aF4.146323044289852e-39
aF2.0058950945015825e-35
aF0.010452748211364295
aF0.0
aF1.603524691682489e-247
aF1.0782980938639754e-91
aF0.0
aF3.151548906514354e-229
aF0.0
aF0.0
aF0.0
aF1.4964018104631892e-125
aF0.0
aF2.1132081094906367e-253
aF1.050709391765154e-56
aF2.0287207806710626e-108
aF0.0
aF1.0495654245287109e-131
aF0.0
aF0.005174401053712448
aF0.0
aF2.3596408205920806e-95
aF0.0
aF5.0434528789923656e-197
aF3.6612258564848036e-67
aF0.0
aF0.0
aF0.010452747476053965
aF2.20849119259347e-166
aF0.0
aF0.010274443329720198
aF0.005226374105682148
aF0.0
aF0.0
aF0.0
aF8.639625937602649e-47
aF7.736225911977206e-135
aF0.0
aF0.0
aF0.0
aF1.9158452253680695e-94
aF0.0
aF0.0
aF0.0
aF0.0
aF0.0
aF0.0
aF1.3972669857442947e-30
aF0.0
aF1.051499270479527e-246
aF2.7954796319846713e-77
aF0.0
aF0.0
aF2.6709565673113866e-287
aF1.3009967105962075e-142
aF0.005377093421445377
aF6.939692997446735e-148
aF0.005226374105682148
aF3.563998805185961e-149
aF5.134184211758177e-153
aF2.068200947720629e-84
aF6.563893721502067e-52
aF2.3048453318579303e-162
aF2.638469006053936e-224
aF0.0054887827157132675
aF0.0
aF0.0
aF1.505214870969363e-154
aF5.757463095481682e-159
aF2.6382778595711653e-136
aF0.0
aF0.0
aF0.0
aF7.76888377326304e-152
aF0.0
aF1.1038906554802728e-173
aF1.3953332243143873e-74
aF0.0
aF0.0
aF1.3817332084682412e-160
aF0.005226374105682148
aF5.565824709585914e-152
aF0.0
aF0.0
aF0.0
aF0.005226374105682148
aF1.3033709683839865e-151
aF0.005226374105682148
aF0.0
aF2.0283876971695242e-147
aF0.0
aF3.469524279953595e-108
aF1.3259005736117294e-147
aF0.0
aF5.94042473406879e-131
aF4.882895244787369e-182
aF9.43630169574085e-115
aF1.6186753915310082e-150
aF0.0
aF1.700037202048018e-176
aF0.0
aF0.0
aF0.0
aF0.0
aF0.0
aF0.005226374105682148
aF2.4284131770415216e-150
aF0.0
aF1.657528637256511e-250
aF9.79422751846038e-27
aF0.0
aF0.0
aF0.0
aF0.0
aF8.520684371977724e-216
aF0.0
aF0.011607707222324527
aF0.0
aF0.0
aF0.005226374105616612
aF0.010539930514254088
aF0.0
aF0.0
aF1.0109119560077429e-120
aF1.723612303627483e-252
aF0.005226374105682148
aF0.0
aF0.0
aF0.005226374105682148
aF1.35264996824614e-168
aF0.0
aF8.758502293771622e-48
aF0.0
aF0.0
aF0.015679121753944904
aF0.0
aF0.0
aF0.0
aF0.0
aF0.0
aF2.8460340954610955e-208
aF0.0
aF3.1094380125278494e-117
aF1.7853193892224085e-172
aF0.0
aF0.0
aF2.825163201221268e-102
aF0.0
aF0.0
aF1.3614207675300827e-221
aF0.0
aF0.0
aF0.005299465012431627
aF0.0
aF2.5939127555958326e-170
aF0.0
aF7.776240380940745e-215
aF0.0
aF0.0
aF0.0
aF0.0
aF1.6917178719829613e-297
aF0.0
aF0.0
aF5.1587924440027294e-86
aF1.6472316923080362e-57
aF0.0
aF0.0
aF0.0
aF0.0
aF0.0
aF6.30171172660126e-149
aF0.0
aF0.0
aF0.0
aF0.0
aF0.0
aF0.0
aF7.15651832941361e-15
aF2.2704812800516043e-43
aF0.005226374105682148
aF5.859541107646717e-222
aF1.430655774308842e-150
aF0.0
aF7.583803937813816e-143
aF0.0
aF0.0
aF0.0
aF0.0
aF0.0
aF0.0
aF0.01567912231704644
aF5.025072559728039e-44
aF0.0
aF0.0
aF1.3712601352419562e-226
aF1.2079582247148713e-113
aF0.0
aF2.618983132963077e-217
aF0.0
aF8.653857650792006e-229
aF0.005226374105682148
aF0.0
aF1.7489170019846032e-99
aF0.0
aF0.0
aF2.485536005705452e-144
aF0.0
aF0.0
aF0.0
aF0.005226374105682148
aF0.0
aF0.0
aF0.0
aF0.005226374105682148
aF0.0
aF5.9160914702400824e-148
aF7.581749480580567e-126
aF1.9007973557570072e-27
aF0.0
aF1.7676764344573794e-265
aF6.191365864680064e-202
aF0.0
aF0.0
aF7.664147101852603e-126
aF0.0
aF0.0
aF0.005226374104311213
aF0.0
aF8.149041114909571e-210
aF0.010452748211364295
aF9.304117159329089e-160
aF0.0
aF0.0
aF0.0
aF0.0
aF0.0
aF0.0
aF1.132811358733812e-241
aF0.0
aF0.0
aF0.0
aF2.7091834743337565e-170
aF0.0
aF0.0
aF0.0
aF3.3579983439320005e-152
aF5.615418467249255e-289
aF8.598414164862115e-33
aF0.0
aF0.0
aF1.2557128301588358e-104
aF5.570995690377194e-29
aF0.0
aF5.2486344332460835e-289
aF2.1360358331161201e-165
aF6.321030384614902e-131
aF0.008524073706065949
aF0.0
aF1.4555373559676398e-75
aF0.0
aF0.0
aF1.3489493897891182e-59
aF0.0
aF8.939258539203695e-40
aF0.005226374105682148
aF0.0
aF3.639807358979838e-151
aF2.737304806672199e-94
aF0.0
aF0.0
aF0.0
aF0.0
aF0.0
aF0.0
aF0.0
aF2.7914845143604336e-85
aF0.0
aF0.0
aF0.0
aF0.0
aF0.0
aF0.0
aF0.0
aF0.0
aF9.824749476552788e-150
aF0.0
aF1.0042942864249017e-186
aF0.0
aF0.0
aF0.0
aF0.0
aF0.0
aF0.0
aF0.0
aF0.0
aF0.0
aF0.0
aF0.0
aF0.0
aF0.005226374105682148
aF0.0
aF0.0
aF0.0
aF0.0
aF4.8525638420502974e-130
aF0.0
aF0.0
aF0.0
aF0.0
aF1.57644607860132e-67
aF0.005226374105682148
aF0.0
aF1.6136786067902863e-40
aF3.158413484765923e-286
aF0.0
aF0.0
aF0.0
aF1.4454755206610754e-152
aF0.0
aF0.005226374105682148
aF5.4990547611585605e-71
aF0.0
aF0.0
aF0.0
aF0.0
aF0.0
aF0.0
aF4.43707584092835e-99
aF0.0
aF0.0
aF0.0
aF0.0
aF0.0
aF2.546418744737875e-159
aF8.976274557452842e-77
aF0.0
aF0.0
aF0.0
aF0.0
aF0.0
aF0.0
aF5.318841054488753e-40
aF3.250606361451355e-95
aF0.0
aF0.0
aF0.0
aF1.681868879463418e-74
aF0.0
aF0.0
aF2.748025583168667e-63
aF0.0
aF0.005226374105682148
aF0.0
aF0.005226374105682148
aF0.0
aF2.3757615647827685e-187
aF7.863216051617188e-151
aF0.0
aF0.005226374105682149
aF0.0
aF0.0
aF0.0
aF0.0
aF0.0
aF5.370550457215907e-52
aF1.1107039549688329e-91
aF0.0
aF0.0
aF0.0
aF0.0
aF0.0
aF0.0
aF0.005226374105682148
aF1.0914470609420067e-227
aF0.0
aF0.0
aF1.6326904569815128e-155
aF0.0
aF8.515935668792941e-126
aF0.0
aF0.0
aF0.0
aF6.661102704150456e-149
aF9.445531124029758e-288
aF0.0
aF0.0
aF1.2645885996508255e-147
aF1.7264851698848778e-107
aF0.0
aF0.0
aF1.5674316604821367e-44
aF0.0
aF1.5647717513341584e-256
aF0.0
aF3.2495145959160674e-90
aF0.005226374105682148
aF0.0
aF1.135090035652781e-143
aF0.0
aF1.1719355540770254e-28
aF0.0
aF6.06862457775e-312
aF0.0
aF0.0
aF3.3141769723385858e-108
aF0.0
aF0.0
aF2.7235398437740994e-132
aF0.0
aF0.005226374105682148
aF0.0
aF0.0
aF0.0
aF1.6155819971365676e-24
aF0.0
aF4.271563102244657e-108
aF2.2228511398310857e-201
aF0.0
aF0.0
aF0.0
aF1.5846189321285416e-41
aF0.0
aF3.3950695245731096e-17
aF0.0
aF0.0
aF0.0
aF0.0
aF0.0
aF0.0
aF2.1924366582518425e-116
aF3.6969626221336024e-266
aF0.0
aF0.0
aF1.0831026956290659e-145
aF0.0
aF0.0
aF0.0
aF8.945179402492134e-275
aF2.3556396108330803e-25
aF8.921471259434077e-126
aF0.005226374105682148
aF0.0
aF0.0
aF0.0
aF0.0
aF0.0
aF0.005226374105682148
aF0.0
aF0.0
aF0.0
aF0.0
aF0.0
aF1.4611131331124063e-117
aF1.0659612906063848e-169
aF5.7856410484502156e-98
aF0.005226374105682148
aF0.0
aF0.0
aF0.0
aF2.9502656970927545e-44
aF4.558305741318031e-186
aF0.0
aF6.542842331070962e-104
aF0.0
aF3.1230746480490573e-218
aF0.0
aF2.7553472880662472e-245
aF6.119759209850538e-241
aF0.0
aF0.0
aF0.0
aF1.231716693934825e-162
aF0.0
aF0.005226374105682148
aF1.95723274228037e-112
aF0.0
aF0.0
aF0.0
aF4.3826401249174615e-170
aF0.0
aF0.0
aF3.004832150104575e-138
aF2.5833819477180675e-247
aF1.849365390339192e-164
aF0.0
aF0.005226374105682148
aF0.0
aF0.0
aF0.0
aF0.005226374105682148
aF0.0
aF0.0
aF0.0
aF0.0
aa(lp37
F0.053457553961727605
aF6.274341917816687e-64
aF0.030592132677156766
aF0.0
aF0.011684335476872915
aF1.26246062267e-313
aF6.829192700327462e-72
aF0.004123617750521093
aF0.04985407970355029
aF1.3788287695089988e-15
aF0.0
aF0.05256451511197356
aF0.0
aF0.0
aF0.0056336218693518875
aF0.05623838499770497
aF8.15415587158638e-33
aF1.76152112461829e-87
aF4.54782780606507e-41
aF1.7161969069680578e-34
aF0.0
aF1.9888279495486966e-34
aF0.0
aF1.964002808285721e-14
aF0.012859480517845226
aF0.0
aF0.0
aF0.0
aF0.02158376291603554
aF9.980973633825205e-51
aF7.547290517868155e-72
aF1.6498676371953317e-256
aF9.606096109079147e-256
aF7.82113009505178e-38
aF0.0296232429648923
aF5.0210358526576125e-155
aF0.0
aF0.0
aF1.0136788217089151e-75
aF0.0
aF2.7759617171777236e-132
aF0.0056336218693518875
aF2.2271202456673847e-123
aF0.0
aF0.0
aF0.0
aF0.0
aF0.0
aF0.0
aF0.006194882773547528
aF0.0
aF3.543251135871893e-37
aF0.015659928988765517
aF0.0
aF0.0
aF0.0
aF2.2229542886892707e-107
aF1.7293624087677566e-79
aF0.0
aF0.0062325514216286515
aF0.004515493329858314
aF0.0
aF0.005206862222419919
aF0.0
aF0.016900865608055662
aF0.008453288177848446
aF9.093668018716328e-46
aF0.0
aF0.0
aF0.01607864441909238
aF0.0
aF3.8613315382331916e-177
aF3.337572539604201e-117
aF1.9076665983375926e-91
aF0.0
aF9.625915526137879e-85
aF2.1425632049458308e-11
aF3.1530995806801117e-115
aF0.003761082736831615
aF0.0
aF3.3139577663166183e-25
aF0.0056336218693518875
aF3.8849488473643324e-143
aF0.0
aF6.705848518312792e-62
aF0.0
aF0.0
aF0.0
aF0.0
aF0.0
aF0.0
aF0.0
aF2.228491781852889e-30
aF2.055098296e-314
aF6.865707466286774e-165
aF0.0
aF0.0
aF0.013638745789032748
aF0.0
aF4.804814377713172e-297
aF0.07268131443280962
aF7.153370141033563e-291
aF0.0
aF0.0
aF0.0
aF2.770238746909253e-149
aF0.0
aF0.031073167540724214
aF3.1886838038502405e-21
aF0.0
aF0.0
aF2.916758818206179e-38
aF0.0
aF0.0
aF1.5012641881134133e-34
aF8.937220535722261e-106
aF0.005633762025091727
aF0.0
aF2.2326037698437363e-96
aF5.412863029926297e-94
aF0.0056336218693518875
aF0.0
aF2.4802934863647452e-157
aF0.0
aF0.0
aF0.0
aF0.0
aF0.010717029522468462
aF8.769839516550379e-34
aF4.112463419155342e-175
aF4.9893613268657304e-26
aF4.653657538504871e-23
aF6.915834982798595e-78
aF0.0
aF3.490220611778512e-80
aF8.022075155953716e-200
aF0.040683653430517046
aF0.007332842729857955
aF0.0
aF0.0
aF9.781526002645127e-08
aF1.24274046542812e-54
aF0.005650535301542123
aF1.2321414485122126e-94
aF0.0
aF4.4897830737066064e-32
aF1.225678352915e-302
aF5.436824639465938e-134
aF1.3040561321227277e-72
aF0.0
aF0.0
aF0.0
aF0.01166947310154533
aF9.875009866662654e-221
aF2.1272860065251103e-33
aF4.911367887749555e-86
aF0.027671580777159484
aF0.0
aF1.9576529773377146e-50
aF3.025915124544935e-38
aF0.0
aF1.939671062665885e-35
aF3.9202200214210364e-25
aF0.0
aF0.002923272135347299
aF4.158174934457641e-40
aF0.0
aF0.0
aF0.0
aF0.0
aF1.51737995696611e-158
aF1.5550384211621951e-264
aF0.0
aF0.0
aF0.0
aF9.439794717312295e-37
aF0.014059864851135593
aF7.866990082210808e-57
aF0.005630361095252774
aF2.9503947694633523e-38
aF7.245270838365387e-209
aF3.1818086637474307e-98
aF5.082336118828883e-06
aF0.013161740637671275
aF8.638016732528171e-212
aF0.0
aF1.2257859306623184e-196
aF0.025896354226434635
aF0.0
aF0.0
aF8.581785052657514e-270
aF5.813711656814778e-177
aF4.6876660095168495e-54
aF9.93159852847345e-41
aF0.0
aF1.0810923241119794e-61
aF0.0
aF0.0
aF4.419624421537633e-129
aF0.0
aF2.6206337383633994e-170
aF1.2398268232999118e-37
aF0.0
aF2.3845636395205776e-44
aF5.25604505722178e-150
aF0.0
aF1.3868666335742085e-62
aF0.0
aF0.0
aF4.562852667977661e-262
aF0.0
aF8.0017291794065e-36
aF0.0
aF0.0
aF6.464204327760189e-200
aF0.0056336218693518875
aF0.0
aF0.0
aF0.0
aF0.0
aF0.005632060720492953
aF4.3533972512793834e-135
aF0.0
aF3.1120607618887506e-190
aF0.0
aF0.0
aF2.5069653185403665e-190
aF1.8211686610985827e-259
aF0.024430909795000177
aF0.0
aF0.0
aF0.0
aF0.000822437637841786
aF1.391025348277646e-21
aF0.0056336218693518875
aF0.0
aF0.0
aF0.0
aF4.7990654705611756e-65
aF7.032858579150203e-40
aF5.177642215278912e-26
aF0.0
aF0.005910099140466451
aF8.897438750067958e-20
aF0.0
aF2.4002389663995564e-55
aF3.0991583197440945e-91
aF0.0
aF1.970426070773449e-133
aF0.0
aF0.0
aF4.2654362874839844e-238
aF1.6296226345634857e-211
aF0.0
aF1.028509581171233e-92
aF1.681844278581319e-169
aF1.6272003367775957e-105
aF0.0
aF2.2498796127913366e-106
aF0.0
aF0.0
aF0.0
aF5.787797751490631e-292
aF0.0
aF0.0
aF0.0
aF8.17519350016511e-64
aF5.108832246859867e-104
aF0.0
aF0.0
aF0.0
aF4.991866801931521e-132
aF4.2717394696587426e-60
aF9.219980152048906e-224
aF0.0
aF0.0
aF0.005633621869351456
aF4.259966333934696e-200
aF0.0
aF1.1742556151543007e-75
aF0.0
aF0.0
aF0.0
aF0.0
aF0.0
aF0.0
aF0.0
aF2.710072577435601e-223
aF0.0
aF0.0
aF1.551352925183763e-80
aF0.0
aF0.0
aF9.112116826797017e-36
aF0.0
aF0.0
aF0.0
aF0.0
aF0.0
aF0.0
aF0.0
aF0.0
aF0.0
aF6.076498390186092e-153
aF0.0
aF1.2550924783497875e-197
aF0.0
aF0.008583753431476793
aF7.97574774547161e-132
aF0.0
aF0.033340138292671094
aF4.860958454009026e-215
aF0.0
aF3.636851445994758e-285
aF0.0
aF0.0
aF0.0
aF0.0
aF0.0
aF0.0
aF0.0
aF0.016900865608055662
aF0.0
aF6.308947291499065e-06
aF0.0
aF0.0
aF0.005633621850210244
aF0.0
aF0.0
aF0.0
aF0.0
aF0.0
aF1.1634710773305363e-26
aF7.366534888650402e-145
aF5.109987213861985e-293
aF2.789872324880007e-146
aF2.195568273985842e-24
aF0.0
aF0.0
aF0.0
aF0.0
aF2.6039995809544425e-122
aF8.283353979408363e-197
aF0.0
aF0.0
aF0.0
aF9.070856115370771e-128
aF0.0
aF0.0
aF1.2363710228230081e-114
aF0.0
aF1.0388206219967144e-146
aF0.0
aF0.0
aF1.5652927324574943e-233
aF0.0
aF7.778240268986018e-34
aF0.0
aF0.0
aF8.119465569794808e-208
aF1.1763603442375973e-132
aF0.0
aF6.131753271181779e-71
aF0.0
aF0.0
aF2.509841279540248e-38
aF4.2103242280100983e-250
aF0.0
aF0.0
aF0.0060141946193588754
aF1.5612780116750825e-76
aF0.0056336218693518875
aF0.0
aF0.0
aF3.991969497026342e-112
aF1.7121689054098189e-37
aF0.0
aF0.0
aF0.0
aF1.4236534507726126e-38
aF0.0
aF4.4995037303754595e-130
aF0.0
aF0.0
aF0.0
aF0.0
aF0.0
aF0.0
aF0.0
aF0.0
aF0.0
aF0.0
aF1.6735771749937732e-38
aF0.0
aF0.0
aF6.18711522115423e-38
aF0.0
aF1.0408462883122222e-11
aF1.8728969745420655e-37
aF0.0
aF0.0
aF0.0056336218693518875
aF0.0
aF4.695579514517315e-38
aF0.0
aF0.0
aF0.0
aF0.0
aF0.0
aF0.0
aF0.0
aF0.0
aF3.400304955311793e-39
aF0.0
aF7.752923174516591e-250
aF3.6002321314335115e-118
aF0.0
aF0.005467127580808938
aF0.0
aF0.0
aF4.632514649960602e-110
aF3.5073789324426544e-177
aF1.081516719135139e-88
aF0.0
aF0.0
aF0.0
aF1.6133088654558327e-93
aF0.0056336218693518875
aF0.0
aF9.475764860454269e-36
aF0.0
aF0.0
aF0.0
aF0.0
aF0.0
aF0.0
aF0.0056336218693518875
aF1.1750696564102658e-116
aF0.0
aF0.0
aF2.5158510617425354e-45
aF0.0
aF0.0
aF6.457985317998925e-153
aF0.0
aF0.0
aF0.0
aF0.0
aF0.0
aF3.638012054356925e-61
aF0.0
aF0.0
aF0.0
aF0.0
aF1.3523336963399688e-269
aF0.0
aF0.0
aF0.0
aF2.6186637450176393e-150
aF0.005630273434278684
aF9.705652002795726e-48
aF0.0
aF0.0
aF0.0
aF0.0
aF0.0
aF0.0
aF0.0
aF0.0
aF0.005633621869351862
aF0.0
aF8.734665764345695e-103
aF0.0
aF0.0
aF0.0
aF0.0
aF0.0056336218693518875
aF2.2235829852043852e-38
aF0.0
aF0.0
aF0.0
aF1.0915226711746053e-152
aF0.0
aF0.0
aF0.0
aF1.7545333696459923e-41
aF0.0
aF0.0
aF8.503603386424104e-39
aF0.0
aF0.0
aF0.0011940466096561438
aF0.0
aF0.0
aF0.0
aF0.0
aF0.0
aF0.0
aF1.637591316859672e-97
aF0.0
aF0.0
aF1.20120684196e-313
aF1.645865305991634e-272
aF0.0
aF0.0
aF0.0
aF0.0
aF5.208843255751561e-134
aF0.0
aF2.294440087312334e-309
aF0.0
aF4.315949903464726e-114
aF4.409720201739975e-38
aF0.0
aF0.0
aF0.0
aF4.6417472656895057e-91
aF0.0
aF0.0
aF0.0
aF3.35693e-319
aF0.0
aF8.084651780012531e-37
aF8.011349668297281e-163
aF0.0
aF0.0
aF0.0056336218693518875
aF0.010730949725958389
aF0.0
aF0.0
aF0.0
aF0.0
aF0.0
aF0.0
aF0.0
aF5.778620915030723e-184
aF5.021084213354689e-12
aF2.119555615953899e-212
aF0.0
aF0.0
aF4.9515085181660614e-29
aF0.0
aF0.0
aF0.0
aF1.4337653381933285e-135
aF0.0
aF0.0
aF0.0
aF0.0
aF0.0
aF0.0
aF0.0
aF1.8536819831292844e-135
aF0.0
aF0.0
aF0.0056336218693518875
aF0.0
aF0.0
aF7.282628714143e-312
aF0.0
aF0.0
aF0.0
aF7.506588215838323e-199
aF9.59904471148804e-39
aF2.2119303071780916e-290
aF1.2298578531982745e-68
aF0.0
aF0.0
aF0.0
aF0.0
aF0.00948987898359091
aF0.0
aF0.0
aF4.282781438503094e-38
aF0.0
aF1.1173091710840161e-235
aF0.0056336218693518875
aF0.0
aF0.0
aF0.0056336218693518875
aF0.0
aF0.005633070395024996
aF0.0
aF0.0
aF0.0
aF2.5985687178635354e-88
aF0.0
aF0.0
aF0.0
aF0.0
aF0.0
aF1.469877818774323e-38
aF0.0
aF1.066790175244946e-120
aF3.355742580476334e-169
aF0.0
aF0.0
aF0.0
aF0.0
aF4.720474005145618e-281
aF0.0
aF0.0
aF0.0
aF0.0
aF0.0
aF0.0
aF0.0
aF0.0
aF1.5710981101154061e-208
aF6.937206213740833e-54
aF5.815399971007924e-73
aF2.390369034336081e-37
aF0.0
aF0.0
aF4.341411386039588e-07
aF0.0
aF1.5699032025538255e-104
aF0.0
aF0.0
aF4.608530454653458e-39
aF1.8003792307498474e-206
aF0.0
aF0.0
aF0.0
aF0.0
aF0.0
aF0.0
aF0.0
aF0.0
aF0.0
aF0.0
aF0.0
aF0.0
aF0.0
aF2.2334978e-316
aF3.479126677191012e-45
aF0.0
aF0.0
aF0.0
aF0.0
aF0.0
aF0.0
aF0.0
aF0.0
aF0.0056336218693518875
aF0.0056336218693518875
aF0.0
aF2.117435286108955e-102
aF0.0
aF0.00563362186935186
aF0.0
aF0.0
aF0.0
aF0.0
aF0.0
aF0.0
aF0.006984326823462746
aF0.0
aF0.0
aF0.0
aF0.0
aF3.4300951234431947e-158
aF0.0
aF3.3641492338012175e-38
aF0.0
aF0.0
aF2.151529122989903e-176
aF0.0
aF0.0
aF4.540124327522501e-93
aF0.0
aF0.0
aF0.0
aF5.520113803059237e-246
aF0.0
aF7.651147698709623e-42
aF0.0
aF0.0
aF0.0
aF0.0
aF5.57263489313955e-287
aF0.0
aF0.0
aF0.0
aF0.0
aF2.4563371245281254e-161
aF0.0
aF0.0
aF0.0
aF0.008885595143036861
aF0.0
aF0.0
aF0.0
aF0.0
aF1.0405264121826616e-156
aF0.0
aF0.0
aF2.603070723391356e-41
aF0.0
aF0.0056336218693518875
aF0.0
aF0.0
aF0.0
aF0.0056336218693518875
aF0.0
aF0.0
aF0.0
aF0.0
aF1.0906989355551846e-215
aF0.0
aF0.0
aF8.219268243920939e-294
aF0.0
aF0.0
aF0.0
aF0.0
aF0.0
aF0.0
aF0.0
aF0.0
aF4.3063638823018835e-101
aF0.0
aF0.0
aF1.9660310510283052e-256
aF0.0
aF0.0056336218693518875
aF0.0
aF0.009489878986309137
aF0.0
aF3.5314167375202594e-248
aF0.0
aF0.0
aF0.0
aF1.6333480473321316e-88
aF0.0
aF6.200785104802699e-107
aF0.0
aF1.1425778906413528e-154
aF0.0
aF2.4973266596590692e-79
aF0.0
aF0.0
aF0.0
aF1.393631649671889e-199
aF0.0
aF0.0
aF0.0
aF0.0
aF8.93358506627758e-291
aF0.0
aF1.1188387418898997e-177
aF0.0
aF4.979948044745018e-145
aF0.0
aF0.0
aF1.3845980649242868e-298
aF0.0
aF0.0
aF0.0
aF3.8851761244702295e-119
aF0.0
aF0.0
aF0.0
aF5.236518051273836e-158
aF0.0
aF0.0
aF4.075728451863324e-38
aF0.0
aF0.0
aF6.509476766683139e-112
aF4.312430049365332e-38
aF7.885367154235555e-109
aF0.0
aF2.808870468102647e-159
aF0.0
aF0.0
aF9.991385737917925e-162
aF0.0
aF0.0
aF0.0
aF3.6089938422225945e-133
aF0.0
aF1.1937580075681796e-86
aF0.0
aF0.0
aF0.0
aF0.0
aF0.0
aF8.612288467463287e-120
aF0.0
aF0.0
aF0.0
aF0.0
aF0.0
aF0.0
aF0.0
aF0.0
aF0.005633141597601952
aF0.0
aF0.0
aF0.0
aasS'A_start'
p38
(lp39
F0.06666666666666667
aF0.06666666666666667
aF0.06666666666666667
aF0.06666666666666667
aF0.06666666666666667
aF0.06666666666666667
aF0.06666666666666667
aF0.06666666666666667
aF0.06666666666666667
aF0.06666666666666667
aF0.06666666666666667
aF0.06666666666666667
aF0.06666666666666667
aF0.06666666666666667
aF0.06666666666666667
asS'iterations'
p40
I100
sb.